
image.elf: formato do arquivo elf32-bigmips


Desmontagem da seção .text:

40000000 <_entry>:
40000000:	3c054000 	lui	a1,0x4000
40000004:	24a53d00 	addiu	a1,a1,15616
40000008:	3c044008 	lui	a0,0x4008
4000000c:	2484f140 	addiu	a0,a0,-3776
40000010:	3c1c4001 	lui	gp,0x4001
40000014:	279cbcf0 	addiu	gp,gp,-17168
40000018:	3c1d5000 	lui	sp,0x5000
4000001c:	27bdfffc 	addiu	sp,sp,-4
40000020:	aca00000 	sw	zero,0(a1)
40000024:	00a4182a 	slt	v1,a1,a0
40000028:	24a50004 	addiu	a1,a1,4
4000002c:	1460fffc 	bnez	v1,40000020 <_entry+0x20>
40000030:	00000000 	nop
40000034:	3c1b4000 	lui	k1,0x4000
40000038:	277b0100 	addiu	k1,k1,256
4000003c:	3c1af000 	lui	k0,0xf000
40000040:	af5b0000 	sw	k1,0(k0)
40000044:	0c0004eb 	jal	400013ac <main>
40000048:	00000000 	nop
4000004c:	3c1ae000 	lui	k0,0xe000
40000050:	af400000 	sw	zero,0(k0)
40000054:	1000ffff 	b	40000054 <_entry+0x54>
40000058:	00000000 	nop
	...

40000100 <_isr>:
40000100:	00000000 	nop
40000104:	27bdff98 	addiu	sp,sp,-104
40000108:	afa10010 	sw	at,16(sp)
4000010c:	afa20014 	sw	v0,20(sp)
40000110:	afa30018 	sw	v1,24(sp)
40000114:	afa4001c 	sw	a0,28(sp)
40000118:	afa50020 	sw	a1,32(sp)
4000011c:	afa60024 	sw	a2,36(sp)
40000120:	afa70028 	sw	a3,40(sp)
40000124:	afa8002c 	sw	t0,44(sp)
40000128:	afa90030 	sw	t1,48(sp)
4000012c:	afaa0034 	sw	t2,52(sp)
40000130:	afab0038 	sw	t3,56(sp)
40000134:	afac003c 	sw	t4,60(sp)
40000138:	afad0040 	sw	t5,64(sp)
4000013c:	afae0044 	sw	t6,68(sp)
40000140:	afaf0048 	sw	t7,72(sp)
40000144:	afb8004c 	sw	t8,76(sp)
40000148:	afb90050 	sw	t9,80(sp)
4000014c:	afbf0054 	sw	ra,84(sp)
40000150:	3c1af000 	lui	k0,0xf000
40000154:	375a0040 	ori	k0,k0,0x40
40000158:	8f5a0000 	lw	k0,0(k0)
4000015c:	275afffc 	addiu	k0,k0,-4
40000160:	afba0058 	sw	k0,88(sp)
40000164:	0000d810 	mfhi	k1
40000168:	afbb005c 	sw	k1,92(sp)
4000016c:	0000d812 	mflo	k1
40000170:	afbb0060 	sw	k1,96(sp)
40000174:	3c05f000 	lui	a1,0xf000
40000178:	8ca40010 	lw	a0,16(a1)
4000017c:	8ca60020 	lw	a2,32(a1)
40000180:	00862024 	and	a0,a0,a2
40000184:	0c00019d 	jal	40000674 <_irq_handler>
40000188:	27a50000 	addiu	a1,sp,0
4000018c:	8fa10010 	lw	at,16(sp)
40000190:	8fa20014 	lw	v0,20(sp)
40000194:	8fa30018 	lw	v1,24(sp)
40000198:	8fa4001c 	lw	a0,28(sp)
4000019c:	8fa50020 	lw	a1,32(sp)
400001a0:	8fa60024 	lw	a2,36(sp)
400001a4:	8fa70028 	lw	a3,40(sp)
400001a8:	8fa8002c 	lw	t0,44(sp)
400001ac:	8fa90030 	lw	t1,48(sp)
400001b0:	8faa0034 	lw	t2,52(sp)
400001b4:	8fab0038 	lw	t3,56(sp)
400001b8:	8fac003c 	lw	t4,60(sp)
400001bc:	8fad0040 	lw	t5,64(sp)
400001c0:	8fae0044 	lw	t6,68(sp)
400001c4:	8faf0048 	lw	t7,72(sp)
400001c8:	8fb8004c 	lw	t8,76(sp)
400001cc:	8fb90050 	lw	t9,80(sp)
400001d0:	8fbf0054 	lw	ra,84(sp)
400001d4:	8fba0058 	lw	k0,88(sp)
400001d8:	8fbb005c 	lw	k1,92(sp)
400001dc:	03600011 	mthi	k1
400001e0:	8fbb0060 	lw	k1,96(sp)
400001e4:	03600013 	mtlo	k1
400001e8:	27bd0068 	addiu	sp,sp,104
400001ec:	341b0001 	li	k1,0x1
400001f0:	3c1af000 	lui	k0,0xf000
400001f4:	375a0030 	ori	k0,k0,0x30
400001f8:	af5b0000 	sw	k1,0(k0)
400001fc:	8fbafff0 	lw	k0,-16(sp)
40000200:	03400008 	jr	k0
40000204:	00000000 	nop

40000208 <_interrupt_set>:
40000208:	3c03f000 	lui	v1,0xf000
4000020c:	34630030 	ori	v1,v1,0x30
40000210:	8c620000 	lw	v0,0(v1)
40000214:	ac640000 	sw	a0,0(v1)
40000218:	03e00008 	jr	ra
4000021c:	00000000 	nop

40000220 <_context_save>:
40000220:	ac900000 	sw	s0,0(a0)
40000224:	ac910004 	sw	s1,4(a0)
40000228:	ac920008 	sw	s2,8(a0)
4000022c:	ac93000c 	sw	s3,12(a0)
40000230:	ac940010 	sw	s4,16(a0)
40000234:	ac950014 	sw	s5,20(a0)
40000238:	ac960018 	sw	s6,24(a0)
4000023c:	ac97001c 	sw	s7,28(a0)
40000240:	ac9e0020 	sw	s8,32(a0)
40000244:	ac9c0024 	sw	gp,36(a0)
40000248:	ac9d0028 	sw	sp,40(a0)
4000024c:	ac9f002c 	sw	ra,44(a0)
40000250:	34020000 	li	v0,0x0
40000254:	03e00008 	jr	ra
40000258:	00000000 	nop

4000025c <_context_restore>:
4000025c:	8c900000 	lw	s0,0(a0)
40000260:	8c910004 	lw	s1,4(a0)
40000264:	8c920008 	lw	s2,8(a0)
40000268:	8c93000c 	lw	s3,12(a0)
4000026c:	8c940010 	lw	s4,16(a0)
40000270:	8c950014 	lw	s5,20(a0)
40000274:	8c960018 	lw	s6,24(a0)
40000278:	8c97001c 	lw	s7,28(a0)
4000027c:	8c9e0020 	lw	s8,32(a0)
40000280:	8c9c0024 	lw	gp,36(a0)
40000284:	8c9d0028 	lw	sp,40(a0)
40000288:	8c9f002c 	lw	ra,44(a0)
4000028c:	341b0001 	li	k1,0x1
40000290:	3c1af000 	lui	k0,0xf000
40000294:	375a0030 	ori	k0,k0,0x30
40000298:	34a20000 	ori	v0,a1,0x0
4000029c:	af5b0000 	sw	k1,0(k0)
400002a0:	03e00008 	jr	ra
400002a4:	00000000 	nop

400002a8 <putchar>:
400002a8:	3c03f000 	lui	v1,0xf000
400002ac:	8c620010 	lw	v0,16(v1)
400002b0:	30420080 	andi	v0,v0,0x80
400002b4:	1040fffd 	beqz	v0,400002ac <putchar+0x4>
400002b8:	3c02f000 	lui	v0,0xf000
400002bc:	ac4400e0 	sw	a0,224(v0)
400002c0:	03e00008 	jr	ra
400002c4:	00000000 	nop

400002c8 <dputchar>:
400002c8:	3c02f000 	lui	v0,0xf000
400002cc:	ac4400d0 	sw	a0,208(v0)
400002d0:	03e00008 	jr	ra
400002d4:	00000000 	nop

400002d8 <delay_ms>:
400002d8:	3c02f000 	lui	v0,0xf000
400002dc:	8c420050 	lw	v0,80(v0)
400002e0:	27bdffc8 	addiu	sp,sp,-56
400002e4:	afb2002c 	sw	s2,44(sp)
400002e8:	3c12017d 	lui	s2,0x17d
400002ec:	afa20018 	sw	v0,24(sp)
400002f0:	afb10028 	sw	s1,40(sp)
400002f4:	afb00024 	sw	s0,36(sp)
400002f8:	afa00010 	sw	zero,16(sp)
400002fc:	afbf0034 	sw	ra,52(sp)
40000300:	afb30030 	sw	s3,48(sp)
40000304:	00808021 	move	s0,a0
40000308:	3c11f000 	lui	s1,0xf000
4000030c:	26527840 	addiu	s2,s2,30784
40000310:	afa00014 	sw	zero,20(sp)
40000314:	080000d4 	j	40000350 <delay_ms+0x78>
40000318:	00000000 	nop
4000031c:	8fa4001c 	lw	a0,28(sp)
40000320:	8fa30018 	lw	v1,24(sp)
40000324:	8fa20014 	lw	v0,20(sp)
40000328:	00821021 	addu	v0,a0,v0
4000032c:	00521021 	addu	v0,v0,s2
40000330:	00431023 	subu	v0,v0,v1
40000334:	afa20014 	sw	v0,20(sp)
40000338:	8fa2001c 	lw	v0,28(sp)
4000033c:	afa20018 	sw	v0,24(sp)
40000340:	8fa20014 	lw	v0,20(sp)
40000344:	2c4261a8 	sltiu	v0,v0,25000
40000348:	10400018 	beqz	v0,400003ac <delay_ms+0xd4>
4000034c:	00000000 	nop
40000350:	8fa20010 	lw	v0,16(sp)
40000354:	0050102b 	sltu	v0,v0,s0
40000358:	10400022 	beqz	v0,400003e4 <delay_ms+0x10c>
4000035c:	8fbf0034 	lw	ra,52(sp)
40000360:	8e220050 	lw	v0,80(s1)
40000364:	afa2001c 	sw	v0,28(sp)
40000368:	8fa3001c 	lw	v1,28(sp)
4000036c:	8fa20018 	lw	v0,24(sp)
40000370:	0062102b 	sltu	v0,v1,v0
40000374:	1440ffe9 	bnez	v0,4000031c <delay_ms+0x44>
40000378:	00000000 	nop
4000037c:	8fa2001c 	lw	v0,28(sp)
40000380:	8fa30018 	lw	v1,24(sp)
40000384:	8fa40014 	lw	a0,20(sp)
40000388:	00821021 	addu	v0,a0,v0
4000038c:	00431023 	subu	v0,v0,v1
40000390:	afa20014 	sw	v0,20(sp)
40000394:	8fa2001c 	lw	v0,28(sp)
40000398:	afa20018 	sw	v0,24(sp)
4000039c:	8fa20014 	lw	v0,20(sp)
400003a0:	2c4261a8 	sltiu	v0,v0,25000
400003a4:	1440ffea 	bnez	v0,40000350 <delay_ms+0x78>
400003a8:	00000000 	nop
400003ac:	8fa40014 	lw	a0,20(sp)
400003b0:	8fb30010 	lw	s3,16(sp)
400003b4:	0c00048f 	jal	4000123c <__udivsi3>
400003b8:	240561a8 	li	a1,25000
400003bc:	00531021 	addu	v0,v0,s3
400003c0:	afa20010 	sw	v0,16(sp)
400003c4:	8fa40014 	lw	a0,20(sp)
400003c8:	0c000491 	jal	40001244 <__umodsi3>
400003cc:	240561a8 	li	a1,25000
400003d0:	afa20014 	sw	v0,20(sp)
400003d4:	8fa20010 	lw	v0,16(sp)
400003d8:	0050102b 	sltu	v0,v0,s0
400003dc:	1440ffe0 	bnez	v0,40000360 <delay_ms+0x88>
400003e0:	8fbf0034 	lw	ra,52(sp)
400003e4:	8fb30030 	lw	s3,48(sp)
400003e8:	8fb2002c 	lw	s2,44(sp)
400003ec:	8fb10028 	lw	s1,40(sp)
400003f0:	8fb00024 	lw	s0,36(sp)
400003f4:	03e00008 	jr	ra
400003f8:	27bd0038 	addiu	sp,sp,56

400003fc <_hardware_init>:
400003fc:	03e00008 	jr	ra
40000400:	00000000 	nop

40000404 <_vm_init>:
40000404:	3c044000 	lui	a0,0x4000
40000408:	27bdffe8 	addiu	sp,sp,-24
4000040c:	afbf0014 	sw	ra,20(sp)
40000410:	0c000226 	jal	40000898 <kprintf>
40000414:	24843234 	addiu	a0,a0,12852
40000418:	3c044000 	lui	a0,0x4000
4000041c:	3c050007 	lui	a1,0x7
40000420:	8fbf0014 	lw	ra,20(sp)
40000424:	24845004 	addiu	a0,a0,20484
40000428:	34a5a120 	ori	a1,a1,0xa120
4000042c:	08000619 	j	40001864 <heapinit>
40000430:	27bd0018 	addiu	sp,sp,24

40000434 <_sched_init>:
40000434:	3c044000 	lui	a0,0x4000
40000438:	08000226 	j	40000898 <kprintf>
4000043c:	24843248 	addiu	a0,a0,12872

40000440 <_timer_init>:
40000440:	27bdffe8 	addiu	sp,sp,-24
40000444:	3c044000 	lui	a0,0x4000
40000448:	afb00010 	sw	s0,16(sp)
4000044c:	2484325c 	addiu	a0,a0,12892
40000450:	afbf0014 	sw	ra,20(sp)
40000454:	0c000226 	jal	40000898 <kprintf>
40000458:	3c104000 	lui	s0,0x4000
4000045c:	26051e30 	addiu	a1,s0,7728
40000460:	0c00018f 	jal	4000063c <_irq_register>
40000464:	24040001 	li	a0,1
40000468:	26051e30 	addiu	a1,s0,7728
4000046c:	0c00018f 	jal	4000063c <_irq_register>
40000470:	24040002 	li	a0,2
40000474:	8fbf0014 	lw	ra,20(sp)
40000478:	24030001 	li	v1,1
4000047c:	3c02f000 	lui	v0,0xf000
40000480:	8fb00010 	lw	s0,16(sp)
40000484:	ac430020 	sw	v1,32(v0)
40000488:	03e00008 	jr	ra
4000048c:	27bd0018 	addiu	sp,sp,24

40000490 <_irq_init>:
40000490:	3c044000 	lui	a0,0x4000
40000494:	08000226 	j	40000898 <kprintf>
40000498:	24843270 	addiu	a0,a0,12912

4000049c <_device_init>:
4000049c:	3c044000 	lui	a0,0x4000
400004a0:	08000226 	j	40000898 <kprintf>
400004a4:	24843284 	addiu	a0,a0,12932

400004a8 <_task_init>:
400004a8:	3c044000 	lui	a0,0x4000
400004ac:	08000226 	j	40000898 <kprintf>
400004b0:	2484329c 	addiu	a0,a0,12956

400004b4 <_set_task_sp>:
400004b4:	3084ffff 	andi	a0,a0,0xffff
400004b8:	000418c0 	sll	v1,a0,0x3
400004bc:	00041140 	sll	v0,a0,0x5
400004c0:	00621021 	addu	v0,v1,v0
400004c4:	00442023 	subu	a0,v0,a0
400004c8:	3c024000 	lui	v0,0x4000
400004cc:	00042080 	sll	a0,a0,0x2
400004d0:	24423dbc 	addiu	v0,v0,15804
400004d4:	00442021 	addu	a0,v0,a0
400004d8:	03e00008 	jr	ra
400004dc:	ac850064 	sw	a1,100(a0)

400004e0 <_get_task_sp>:
400004e0:	3084ffff 	andi	a0,a0,0xffff
400004e4:	000418c0 	sll	v1,a0,0x3
400004e8:	00041140 	sll	v0,a0,0x5
400004ec:	00621021 	addu	v0,v1,v0
400004f0:	00442023 	subu	a0,v0,a0
400004f4:	3c024000 	lui	v0,0x4000
400004f8:	24423dbc 	addiu	v0,v0,15804
400004fc:	00042080 	sll	a0,a0,0x2
40000500:	00442021 	addu	a0,v0,a0
40000504:	03e00008 	jr	ra
40000508:	8c820064 	lw	v0,100(a0)

4000050c <_set_task_tp>:
4000050c:	3084ffff 	andi	a0,a0,0xffff
40000510:	000418c0 	sll	v1,a0,0x3
40000514:	00041140 	sll	v0,a0,0x5
40000518:	00621021 	addu	v0,v1,v0
4000051c:	00442023 	subu	a0,v0,a0
40000520:	3c024000 	lui	v0,0x4000
40000524:	00042080 	sll	a0,a0,0x2
40000528:	24423dbc 	addiu	v0,v0,15804
4000052c:	00442021 	addu	a0,v0,a0
40000530:	03e00008 	jr	ra
40000534:	ac850068 	sw	a1,104(a0)

40000538 <_cpu_idle>:
40000538:	03e00008 	jr	ra
4000053c:	00000000 	nop

40000540 <_readcounter>:
40000540:	3c02f000 	lui	v0,0xf000
40000544:	8c420050 	lw	v0,80(v0)
40000548:	03e00008 	jr	ra
4000054c:	00000000 	nop

40000550 <_read_us>:
40000550:	3c094000 	lui	t1,0x4000
40000554:	8d223d08 	lw	v0,15624(t1)
40000558:	27bdffe8 	addiu	sp,sp,-24
4000055c:	afbf0014 	sw	ra,20(sp)
40000560:	14400014 	bnez	v0,400005b4 <_read_us+0x64>
40000564:	3c03f000 	lui	v1,0xf000
40000568:	8c620050 	lw	v0,80(v1)
4000056c:	3c024000 	lui	v0,0x4000
40000570:	8c423d0c 	lw	v0,15628(v0)
40000574:	8c630050 	lw	v1,80(v1)
40000578:	3c03f000 	lui	v1,0xf000
4000057c:	8c6a0050 	lw	t2,80(v1)
40000580:	8c680050 	lw	t0,80(v1)
40000584:	00402021 	move	a0,v0
40000588:	3c034000 	lui	v1,0x4000
4000058c:	01002821 	move	a1,t0
40000590:	24070019 	li	a3,25
40000594:	00003021 	move	a2,zero
40000598:	ad2a3d08 	sw	t2,15624(t1)
4000059c:	ac623d10 	sw	v0,15632(v1)
400005a0:	0c0004d2 	jal	40001348 <__udivdi3>
400005a4:	ac683d14 	sw	t0,15636(v1)
400005a8:	8fbf0014 	lw	ra,20(sp)
400005ac:	03e00008 	jr	ra
400005b0:	27bd0018 	addiu	sp,sp,24
400005b4:	8c630050 	lw	v1,80(v1)
400005b8:	0062102b 	sltu	v0,v1,v0
400005bc:	10400005 	beqz	v0,400005d4 <_read_us+0x84>
400005c0:	3c034000 	lui	v1,0x4000
400005c4:	8c623d0c 	lw	v0,15628(v1)
400005c8:	24420001 	addiu	v0,v0,1
400005cc:	0800015e 	j	40000578 <_read_us+0x28>
400005d0:	ac623d0c 	sw	v0,15628(v1)
400005d4:	3c024000 	lui	v0,0x4000
400005d8:	0800015e 	j	40000578 <_read_us+0x28>
400005dc:	8c423d0c 	lw	v0,15628(v0)

400005e0 <_timer_reset>:
400005e0:	3c02f000 	lui	v0,0xf000
400005e4:	8c430020 	lw	v1,32(v0)
400005e8:	27bdffe8 	addiu	sp,sp,-24
400005ec:	afbf0014 	sw	ra,20(sp)
400005f0:	38630003 	xori	v1,v1,0x3
400005f4:	ac430020 	sw	v1,32(v0)
400005f8:	0c000154 	jal	40000550 <_read_us>
400005fc:	00000000 	nop
40000600:	3c024000 	lui	v0,0x4000
40000604:	8c453d04 	lw	a1,15620(v0)
40000608:	8fbf0014 	lw	ra,20(sp)
4000060c:	3c044000 	lui	a0,0x4000
40000610:	00652823 	subu	a1,v1,a1
40000614:	ac833d00 	sw	v1,15616(a0)
40000618:	3c044008 	lui	a0,0x4008
4000061c:	ac85f138 	sw	a1,-3784(a0)
40000620:	ac433d04 	sw	v1,15620(v0)
40000624:	03e00008 	jr	ra
40000628:	27bd0018 	addiu	sp,sp,24

4000062c <_panic>:
4000062c:	3c02e000 	lui	v0,0xe000
40000630:	ac400000 	sw	zero,0(v0)
40000634:	03e00008 	jr	ra
40000638:	00000000 	nop

4000063c <_irq_register>:
4000063c:	3c034000 	lui	v1,0x4000
40000640:	24633d18 	addiu	v1,v1,15640
40000644:	00001021 	move	v0,zero
40000648:	24080001 	li	t0,1
4000064c:	24070020 	li	a3,32
40000650:	00483004 	sllv	a2,t0,v0
40000654:	00c43024 	and	a2,a2,a0
40000658:	10c00002 	beqz	a2,40000664 <_irq_register+0x28>
4000065c:	24420001 	addiu	v0,v0,1
40000660:	ac650000 	sw	a1,0(v1)
40000664:	1447fffa 	bne	v0,a3,40000650 <_irq_register+0x14>
40000668:	24630004 	addiu	v1,v1,4
4000066c:	03e00008 	jr	ra
40000670:	00000000 	nop

40000674 <_irq_handler>:
40000674:	27bdffe0 	addiu	sp,sp,-32
40000678:	afbf001c 	sw	ra,28(sp)
4000067c:	afb20018 	sw	s2,24(sp)
40000680:	afb10014 	sw	s1,20(sp)
40000684:	afb00010 	sw	s0,16(sp)
40000688:	00a08821 	move	s1,a1
4000068c:	0c000154 	jal	40000550 <_read_us>
40000690:	00808021 	move	s0,a0
40000694:	3c044000 	lui	a0,0x4000
40000698:	00603021 	move	a2,v1
4000069c:	248432b0 	addiu	a0,a0,12976
400006a0:	0c0002a3 	jal	40000a8c <dprintf>
400006a4:	02002821 	move	a1,s0
400006a8:	3c024008 	lui	v0,0x4008
400006ac:	2442f124 	addiu	v0,v0,-3804
400006b0:	8c430010 	lw	v1,16(v0)
400006b4:	3c124000 	lui	s2,0x4000
400006b8:	26523d18 	addiu	s2,s2,15640
400006bc:	24630001 	addiu	v1,v1,1
400006c0:	ac430010 	sw	v1,16(v0)
400006c4:	32020001 	andi	v0,s0,0x1
400006c8:	10400006 	beqz	v0,400006e4 <_irq_handler+0x70>
400006cc:	00108042 	srl	s0,s0,0x1
400006d0:	8e420000 	lw	v0,0(s2)
400006d4:	10400003 	beqz	v0,400006e4 <_irq_handler+0x70>
400006d8:	02202021 	move	a0,s1
400006dc:	0040f809 	jalr	v0
400006e0:	00000000 	nop
400006e4:	1600fff7 	bnez	s0,400006c4 <_irq_handler+0x50>
400006e8:	26520004 	addiu	s2,s2,4
400006ec:	8fbf001c 	lw	ra,28(sp)
400006f0:	8fb20018 	lw	s2,24(sp)
400006f4:	8fb10014 	lw	s1,20(sp)
400006f8:	8fb00010 	lw	s0,16(sp)
400006fc:	03e00008 	jr	ra
40000700:	27bd0020 	addiu	sp,sp,32

40000704 <kitoa.part.0>:
40000704:	27bdffd0 	addiu	sp,sp,-48
40000708:	24020010 	li	v0,16
4000070c:	afb2001c 	sw	s2,28(sp)
40000710:	afb00014 	sw	s0,20(sp)
40000714:	afbf002c 	sw	ra,44(sp)
40000718:	afb50028 	sw	s5,40(sp)
4000071c:	afb40024 	sw	s4,36(sp)
40000720:	afb30020 	sw	s3,32(sp)
40000724:	afb10018 	sw	s1,24(sp)
40000728:	00a09021 	move	s2,a1
4000072c:	10a20036 	beq	a1,v0,40000808 <kitoa.part.0+0x104>
40000730:	00808021 	move	s0,a0
40000734:	04800047 	bltz	a0,40000854 <kitoa.part.0+0x150>
40000738:	00000000 	nop
4000073c:	10800024 	beqz	a0,400007d0 <kitoa.part.0+0xcc>
40000740:	0000a821 	move	s5,zero
40000744:	3c134000 	lui	s3,0x4000
40000748:	3c144000 	lui	s4,0x4000
4000074c:	2411001e 	li	s1,30
40000750:	26733d98 	addiu	s3,s3,15768
40000754:	080001d9 	j	40000764 <kitoa.part.0+0x60>
40000758:	269432bc 	addiu	s4,s4,12988
4000075c:	1220000e 	beqz	s1,40000798 <kitoa.part.0+0x94>
40000760:	00000000 	nop
40000764:	02002021 	move	a0,s0
40000768:	0c00047b 	jal	400011ec <__modsi3>
4000076c:	02402821 	move	a1,s2
40000770:	02821021 	addu	v0,s4,v0
40000774:	90430000 	lbu	v1,0(v0)
40000778:	02711021 	addu	v0,s3,s1
4000077c:	02002021 	move	a0,s0
40000780:	02402821 	move	a1,s2
40000784:	0c000466 	jal	40001198 <__divsi3>
40000788:	a0430000 	sb	v1,0(v0)
4000078c:	00408021 	move	s0,v0
40000790:	1440fff2 	bnez	v0,4000075c <kitoa.part.0+0x58>
40000794:	2631ffff 	addiu	s1,s1,-1
40000798:	12a00010 	beqz	s5,400007dc <kitoa.part.0+0xd8>
4000079c:	02711021 	addu	v0,s3,s1
400007a0:	2403002d 	li	v1,45
400007a4:	a0430000 	sb	v1,0(v0)
400007a8:	8fbf002c 	lw	ra,44(sp)
400007ac:	02711021 	addu	v0,s3,s1
400007b0:	8fb50028 	lw	s5,40(sp)
400007b4:	8fb40024 	lw	s4,36(sp)
400007b8:	8fb30020 	lw	s3,32(sp)
400007bc:	8fb2001c 	lw	s2,28(sp)
400007c0:	8fb10018 	lw	s1,24(sp)
400007c4:	8fb00014 	lw	s0,20(sp)
400007c8:	03e00008 	jr	ra
400007cc:	27bd0030 	addiu	sp,sp,48
400007d0:	3c134000 	lui	s3,0x4000
400007d4:	2411001e 	li	s1,30
400007d8:	26733d98 	addiu	s3,s3,15768
400007dc:	8fbf002c 	lw	ra,44(sp)
400007e0:	26310001 	addiu	s1,s1,1
400007e4:	02711021 	addu	v0,s3,s1
400007e8:	8fb50028 	lw	s5,40(sp)
400007ec:	8fb40024 	lw	s4,36(sp)
400007f0:	8fb30020 	lw	s3,32(sp)
400007f4:	8fb2001c 	lw	s2,28(sp)
400007f8:	8fb10018 	lw	s1,24(sp)
400007fc:	8fb00014 	lw	s0,20(sp)
40000800:	03e00008 	jr	ra
40000804:	27bd0030 	addiu	sp,sp,48
40000808:	1080001f 	beqz	a0,40000888 <kitoa.part.0+0x184>
4000080c:	3c144000 	lui	s4,0x4000
40000810:	3c134000 	lui	s3,0x4000
40000814:	2411001e 	li	s1,30
40000818:	26733d98 	addiu	s3,s3,15768
4000081c:	0800020b 	j	4000082c <kitoa.part.0+0x128>
40000820:	269432bc 	addiu	s4,s4,12988
40000824:	1220000e 	beqz	s1,40000860 <kitoa.part.0+0x15c>
40000828:	8fbf002c 	lw	ra,44(sp)
4000082c:	3202000f 	andi	v0,s0,0xf
40000830:	02821021 	addu	v0,s4,v0
40000834:	90430000 	lbu	v1,0(v0)
40000838:	00108102 	srl	s0,s0,0x4
4000083c:	02711021 	addu	v0,s3,s1
40000840:	a0430000 	sb	v1,0(v0)
40000844:	1600fff7 	bnez	s0,40000824 <kitoa.part.0+0x120>
40000848:	2631ffff 	addiu	s1,s1,-1
4000084c:	080001f8 	j	400007e0 <kitoa.part.0+0xdc>
40000850:	8fbf002c 	lw	ra,44(sp)
40000854:	00048023 	negu	s0,a0
40000858:	080001d1 	j	40000744 <kitoa.part.0+0x40>
4000085c:	24150001 	li	s5,1
40000860:	24110001 	li	s1,1
40000864:	02711021 	addu	v0,s3,s1
40000868:	8fb50028 	lw	s5,40(sp)
4000086c:	8fb40024 	lw	s4,36(sp)
40000870:	8fb30020 	lw	s3,32(sp)
40000874:	8fb2001c 	lw	s2,28(sp)
40000878:	8fb10018 	lw	s1,24(sp)
4000087c:	8fb00014 	lw	s0,20(sp)
40000880:	03e00008 	jr	ra
40000884:	27bd0030 	addiu	sp,sp,48
40000888:	3c134000 	lui	s3,0x4000
4000088c:	2411001f 	li	s1,31
40000890:	080001ea 	j	400007a8 <kitoa.part.0+0xa4>
40000894:	26733d98 	addiu	s3,s3,15768

40000898 <kprintf>:
40000898:	27bdffc0 	addiu	sp,sp,-64
4000089c:	27a20044 	addiu	v0,sp,68
400008a0:	afbe0038 	sw	s8,56(sp)
400008a4:	afb60030 	sw	s6,48(sp)
400008a8:	afb40028 	sw	s4,40(sp)
400008ac:	afb30024 	sw	s3,36(sp)
400008b0:	afb20020 	sw	s2,32(sp)
400008b4:	afb1001c 	sw	s1,28(sp)
400008b8:	afb00018 	sw	s0,24(sp)
400008bc:	afbf003c 	sw	ra,60(sp)
400008c0:	afb70034 	sw	s7,52(sp)
400008c4:	afb5002c 	sw	s5,44(sp)
400008c8:	afa50044 	sw	a1,68(sp)
400008cc:	afa60048 	sw	a2,72(sp)
400008d0:	afa7004c 	sw	a3,76(sp)
400008d4:	00808021 	move	s0,a0
400008d8:	afa20010 	sw	v0,16(sp)
400008dc:	0040f021 	move	s8,v0
400008e0:	24110025 	li	s1,37
400008e4:	24120064 	li	s2,100
400008e8:	3c144000 	lui	s4,0x4000
400008ec:	24130073 	li	s3,115
400008f0:	3c164000 	lui	s6,0x4000
400008f4:	82040000 	lb	a0,0(s0)
400008f8:	10800008 	beqz	a0,4000091c <kprintf+0x84>
400008fc:	8fbf003c 	lw	ra,60(sp)
40000900:	10910012 	beq	a0,s1,4000094c <kprintf+0xb4>
40000904:	00000000 	nop
40000908:	0c0000aa 	jal	400002a8 <putchar>
4000090c:	26100001 	addiu	s0,s0,1
40000910:	82040000 	lb	a0,0(s0)
40000914:	1480fffa 	bnez	a0,40000900 <kprintf+0x68>
40000918:	8fbf003c 	lw	ra,60(sp)
4000091c:	00001021 	move	v0,zero
40000920:	8fbe0038 	lw	s8,56(sp)
40000924:	8fb70034 	lw	s7,52(sp)
40000928:	8fb60030 	lw	s6,48(sp)
4000092c:	8fb5002c 	lw	s5,44(sp)
40000930:	8fb40028 	lw	s4,40(sp)
40000934:	8fb30024 	lw	s3,36(sp)
40000938:	8fb20020 	lw	s2,32(sp)
4000093c:	8fb1001c 	lw	s1,28(sp)
40000940:	8fb00018 	lw	s0,24(sp)
40000944:	03e00008 	jr	ra
40000948:	27bd0040 	addiu	sp,sp,64
4000094c:	82020001 	lb	v0,1(s0)
40000950:	1052002c 	beq	v0,s2,40000a04 <kprintf+0x16c>
40000954:	28430065 	slti	v1,v0,101
40000958:	10600009 	beqz	v1,40000980 <kprintf+0xe8>
4000095c:	00000000 	nop
40000960:	1051003c 	beq	v0,s1,40000a54 <kprintf+0x1bc>
40000964:	24030063 	li	v1,99
40000968:	10430034 	beq	v0,v1,40000a3c <kprintf+0x1a4>
4000096c:	00000000 	nop
40000970:	0c0000aa 	jal	400002a8 <putchar>
40000974:	2404003f 	li	a0,63
40000978:	0800023d 	j	400008f4 <kprintf+0x5c>
4000097c:	26100002 	addiu	s0,s0,2
40000980:	10530011 	beq	v0,s3,400009c8 <kprintf+0x130>
40000984:	24030078 	li	v1,120
40000988:	1443fff9 	bne	v0,v1,40000970 <kprintf+0xd8>
4000098c:	27d50004 	addiu	s5,s8,4
40000990:	8fc40000 	lw	a0,0(s8)
40000994:	14800033 	bnez	a0,40000a64 <kprintf+0x1cc>
40000998:	269732d0 	addiu	s7,s4,13008
4000099c:	82e40000 	lb	a0,0(s7)
400009a0:	1080fff5 	beqz	a0,40000978 <kprintf+0xe0>
400009a4:	02a0f021 	move	s8,s5
400009a8:	0c0000aa 	jal	400002a8 <putchar>
400009ac:	26f70001 	addiu	s7,s7,1
400009b0:	82e40000 	lb	a0,0(s7)
400009b4:	1480fffc 	bnez	a0,400009a8 <kprintf+0x110>
400009b8:	00000000 	nop
400009bc:	02a0f021 	move	s8,s5
400009c0:	0800023d 	j	400008f4 <kprintf+0x5c>
400009c4:	26100002 	addiu	s0,s0,2
400009c8:	8fd50000 	lw	s5,0(s8)
400009cc:	12a0002d 	beqz	s5,40000a84 <kprintf+0x1ec>
400009d0:	27d70004 	addiu	s7,s8,4
400009d4:	82a40000 	lb	a0,0(s5)
400009d8:	1080ffe7 	beqz	a0,40000978 <kprintf+0xe0>
400009dc:	02e0f021 	move	s8,s7
400009e0:	26b50001 	addiu	s5,s5,1
400009e4:	0c0000aa 	jal	400002a8 <putchar>
400009e8:	26b50001 	addiu	s5,s5,1
400009ec:	82a4ffff 	lb	a0,-1(s5)
400009f0:	1480fffc 	bnez	a0,400009e4 <kprintf+0x14c>
400009f4:	00000000 	nop
400009f8:	02e0f021 	move	s8,s7
400009fc:	0800023d 	j	400008f4 <kprintf+0x5c>
40000a00:	26100002 	addiu	s0,s0,2
40000a04:	8fc40000 	lw	a0,0(s8)
40000a08:	27d50004 	addiu	s5,s8,4
40000a0c:	14800019 	bnez	a0,40000a74 <kprintf+0x1dc>
40000a10:	269732d0 	addiu	s7,s4,13008
40000a14:	82e40000 	lb	a0,0(s7)
40000a18:	1080ffd7 	beqz	a0,40000978 <kprintf+0xe0>
40000a1c:	02a0f021 	move	s8,s5
40000a20:	0c0000aa 	jal	400002a8 <putchar>
40000a24:	26f70001 	addiu	s7,s7,1
40000a28:	82e40000 	lb	a0,0(s7)
40000a2c:	1480fffc 	bnez	a0,40000a20 <kprintf+0x188>
40000a30:	00000000 	nop
40000a34:	08000270 	j	400009c0 <kprintf+0x128>
40000a38:	02a0f021 	move	s8,s5
40000a3c:	83c40003 	lb	a0,3(s8)
40000a40:	26100002 	addiu	s0,s0,2
40000a44:	0c0000aa 	jal	400002a8 <putchar>
40000a48:	27de0004 	addiu	s8,s8,4
40000a4c:	0800023e 	j	400008f8 <kprintf+0x60>
40000a50:	82040000 	lb	a0,0(s0)
40000a54:	0c0000aa 	jal	400002a8 <putchar>
40000a58:	24040025 	li	a0,37
40000a5c:	0800023d 	j	400008f4 <kprintf+0x5c>
40000a60:	26100002 	addiu	s0,s0,2
40000a64:	0c0001c1 	jal	40000704 <kitoa.part.0>
40000a68:	24050010 	li	a1,16
40000a6c:	08000267 	j	4000099c <kprintf+0x104>
40000a70:	0040b821 	move	s7,v0
40000a74:	0c0001c1 	jal	40000704 <kitoa.part.0>
40000a78:	2405000a 	li	a1,10
40000a7c:	08000285 	j	40000a14 <kprintf+0x17c>
40000a80:	0040b821 	move	s7,v0
40000a84:	08000275 	j	400009d4 <kprintf+0x13c>
40000a88:	26d532d4 	addiu	s5,s6,13012

40000a8c <dprintf>:
40000a8c:	27bdffc0 	addiu	sp,sp,-64
40000a90:	afb00018 	sw	s0,24(sp)
40000a94:	00808021 	move	s0,a0
40000a98:	00002021 	move	a0,zero
40000a9c:	afbe0038 	sw	s8,56(sp)
40000aa0:	afb60030 	sw	s6,48(sp)
40000aa4:	afb40028 	sw	s4,40(sp)
40000aa8:	afb30024 	sw	s3,36(sp)
40000aac:	afb20020 	sw	s2,32(sp)
40000ab0:	afb1001c 	sw	s1,28(sp)
40000ab4:	afbf003c 	sw	ra,60(sp)
40000ab8:	afb70034 	sw	s7,52(sp)
40000abc:	afb5002c 	sw	s5,44(sp)
40000ac0:	afa50044 	sw	a1,68(sp)
40000ac4:	afa60048 	sw	a2,72(sp)
40000ac8:	afa7004c 	sw	a3,76(sp)
40000acc:	0c000082 	jal	40000208 <_interrupt_set>
40000ad0:	27be0044 	addiu	s8,sp,68
40000ad4:	afa20010 	sw	v0,16(sp)
40000ad8:	afbe0014 	sw	s8,20(sp)
40000adc:	24110025 	li	s1,37
40000ae0:	24120064 	li	s2,100
40000ae4:	3c144000 	lui	s4,0x4000
40000ae8:	24130073 	li	s3,115
40000aec:	3c164000 	lui	s6,0x4000
40000af0:	82040000 	lb	a0,0(s0)
40000af4:	10800008 	beqz	a0,40000b18 <dprintf+0x8c>
40000af8:	00000000 	nop
40000afc:	10910016 	beq	a0,s1,40000b58 <dprintf+0xcc>
40000b00:	00000000 	nop
40000b04:	0c0000b2 	jal	400002c8 <dputchar>
40000b08:	26100001 	addiu	s0,s0,1
40000b0c:	82040000 	lb	a0,0(s0)
40000b10:	1480fffa 	bnez	a0,40000afc <dprintf+0x70>
40000b14:	00000000 	nop
40000b18:	8fa40010 	lw	a0,16(sp)
40000b1c:	0c000082 	jal	40000208 <_interrupt_set>
40000b20:	00000000 	nop
40000b24:	8fbf003c 	lw	ra,60(sp)
40000b28:	00001021 	move	v0,zero
40000b2c:	8fbe0038 	lw	s8,56(sp)
40000b30:	8fb70034 	lw	s7,52(sp)
40000b34:	8fb60030 	lw	s6,48(sp)
40000b38:	8fb5002c 	lw	s5,44(sp)
40000b3c:	8fb40028 	lw	s4,40(sp)
40000b40:	8fb30024 	lw	s3,36(sp)
40000b44:	8fb20020 	lw	s2,32(sp)
40000b48:	8fb1001c 	lw	s1,28(sp)
40000b4c:	8fb00018 	lw	s0,24(sp)
40000b50:	03e00008 	jr	ra
40000b54:	27bd0040 	addiu	sp,sp,64
40000b58:	82020001 	lb	v0,1(s0)
40000b5c:	1052002c 	beq	v0,s2,40000c10 <dprintf+0x184>
40000b60:	28430065 	slti	v1,v0,101
40000b64:	10600009 	beqz	v1,40000b8c <dprintf+0x100>
40000b68:	00000000 	nop
40000b6c:	1051003c 	beq	v0,s1,40000c60 <dprintf+0x1d4>
40000b70:	24030063 	li	v1,99
40000b74:	10430034 	beq	v0,v1,40000c48 <dprintf+0x1bc>
40000b78:	00000000 	nop
40000b7c:	0c0000b2 	jal	400002c8 <dputchar>
40000b80:	2404003f 	li	a0,63
40000b84:	080002bc 	j	40000af0 <dprintf+0x64>
40000b88:	26100002 	addiu	s0,s0,2
40000b8c:	10530011 	beq	v0,s3,40000bd4 <dprintf+0x148>
40000b90:	24030078 	li	v1,120
40000b94:	1443fff9 	bne	v0,v1,40000b7c <dprintf+0xf0>
40000b98:	27d50004 	addiu	s5,s8,4
40000b9c:	8fc40000 	lw	a0,0(s8)
40000ba0:	14800033 	bnez	a0,40000c70 <dprintf+0x1e4>
40000ba4:	269732d0 	addiu	s7,s4,13008
40000ba8:	82e40000 	lb	a0,0(s7)
40000bac:	1080fff5 	beqz	a0,40000b84 <dprintf+0xf8>
40000bb0:	02a0f021 	move	s8,s5
40000bb4:	0c0000b2 	jal	400002c8 <dputchar>
40000bb8:	26f70001 	addiu	s7,s7,1
40000bbc:	82e40000 	lb	a0,0(s7)
40000bc0:	1480fffc 	bnez	a0,40000bb4 <dprintf+0x128>
40000bc4:	00000000 	nop
40000bc8:	02a0f021 	move	s8,s5
40000bcc:	080002bc 	j	40000af0 <dprintf+0x64>
40000bd0:	26100002 	addiu	s0,s0,2
40000bd4:	8fd50000 	lw	s5,0(s8)
40000bd8:	12a0002d 	beqz	s5,40000c90 <dprintf+0x204>
40000bdc:	27d70004 	addiu	s7,s8,4
40000be0:	82a40000 	lb	a0,0(s5)
40000be4:	1080ffe7 	beqz	a0,40000b84 <dprintf+0xf8>
40000be8:	02e0f021 	move	s8,s7
40000bec:	26b50001 	addiu	s5,s5,1
40000bf0:	0c0000b2 	jal	400002c8 <dputchar>
40000bf4:	26b50001 	addiu	s5,s5,1
40000bf8:	82a4ffff 	lb	a0,-1(s5)
40000bfc:	1480fffc 	bnez	a0,40000bf0 <dprintf+0x164>
40000c00:	00000000 	nop
40000c04:	02e0f021 	move	s8,s7
40000c08:	080002bc 	j	40000af0 <dprintf+0x64>
40000c0c:	26100002 	addiu	s0,s0,2
40000c10:	8fc40000 	lw	a0,0(s8)
40000c14:	27d50004 	addiu	s5,s8,4
40000c18:	14800019 	bnez	a0,40000c80 <dprintf+0x1f4>
40000c1c:	269732d0 	addiu	s7,s4,13008
40000c20:	82e40000 	lb	a0,0(s7)
40000c24:	1080ffd7 	beqz	a0,40000b84 <dprintf+0xf8>
40000c28:	02a0f021 	move	s8,s5
40000c2c:	0c0000b2 	jal	400002c8 <dputchar>
40000c30:	26f70001 	addiu	s7,s7,1
40000c34:	82e40000 	lb	a0,0(s7)
40000c38:	1480fffc 	bnez	a0,40000c2c <dprintf+0x1a0>
40000c3c:	00000000 	nop
40000c40:	080002f3 	j	40000bcc <dprintf+0x140>
40000c44:	02a0f021 	move	s8,s5
40000c48:	83c40003 	lb	a0,3(s8)
40000c4c:	26100002 	addiu	s0,s0,2
40000c50:	0c0000aa 	jal	400002a8 <putchar>
40000c54:	27de0004 	addiu	s8,s8,4
40000c58:	080002bd 	j	40000af4 <dprintf+0x68>
40000c5c:	82040000 	lb	a0,0(s0)
40000c60:	0c0000b2 	jal	400002c8 <dputchar>
40000c64:	24040025 	li	a0,37
40000c68:	080002bc 	j	40000af0 <dprintf+0x64>
40000c6c:	26100002 	addiu	s0,s0,2
40000c70:	0c0001c1 	jal	40000704 <kitoa.part.0>
40000c74:	24050010 	li	a1,16
40000c78:	080002ea 	j	40000ba8 <dprintf+0x11c>
40000c7c:	0040b821 	move	s7,v0
40000c80:	0c0001c1 	jal	40000704 <kitoa.part.0>
40000c84:	2405000a 	li	a1,10
40000c88:	08000308 	j	40000c20 <dprintf+0x194>
40000c8c:	0040b821 	move	s7,v0
40000c90:	080002f8 	j	40000be0 <dprintf+0x154>
40000c94:	26d532d4 	addiu	s5,s6,13012

40000c98 <printchar>:
40000c98:	10800007 	beqz	a0,40000cb8 <printchar+0x20>
40000c9c:	00000000 	nop
40000ca0:	8c820000 	lw	v0,0(a0)
40000ca4:	a0450000 	sb	a1,0(v0)
40000ca8:	8c820000 	lw	v0,0(a0)
40000cac:	24420001 	addiu	v0,v0,1
40000cb0:	03e00008 	jr	ra
40000cb4:	ac820000 	sw	v0,0(a0)
40000cb8:	14a00003 	bnez	a1,40000cc8 <printchar+0x30>
40000cbc:	00000000 	nop
40000cc0:	03e00008 	jr	ra
40000cc4:	00000000 	nop
40000cc8:	080000aa 	j	400002a8 <putchar>
40000ccc:	00a02021 	move	a0,a1

40000cd0 <vsprintf>:
40000cd0:	27bdffb8 	addiu	sp,sp,-72
40000cd4:	afb20028 	sw	s2,40(sp)
40000cd8:	afb00020 	sw	s0,32(sp)
40000cdc:	afbf0044 	sw	ra,68(sp)
40000ce0:	afbe0040 	sw	s8,64(sp)
40000ce4:	afb7003c 	sw	s7,60(sp)
40000ce8:	afb60038 	sw	s6,56(sp)
40000cec:	afb50034 	sw	s5,52(sp)
40000cf0:	afb40030 	sw	s4,48(sp)
40000cf4:	afb3002c 	sw	s3,44(sp)
40000cf8:	afb10024 	sw	s1,36(sp)
40000cfc:	00a09021 	move	s2,a1
40000d00:	80a50000 	lb	a1,0(a1)
40000d04:	00808021 	move	s0,a0
40000d08:	14a00008 	bnez	a1,40000d2c <vsprintf+0x5c>
40000d0c:	afa60050 	sw	a2,80(sp)
40000d10:	08000397 	j	40000e5c <vsprintf+0x18c>
40000d14:	02002021 	move	a0,s0
40000d18:	0c000326 	jal	40000c98 <printchar>
40000d1c:	02002021 	move	a0,s0
40000d20:	82450001 	lb	a1,1(s2)
40000d24:	10a0004c 	beqz	a1,40000e58 <vsprintf+0x188>
40000d28:	26520001 	addiu	s2,s2,1
40000d2c:	24020025 	li	v0,37
40000d30:	14a2fff9 	bne	a1,v0,40000d18 <vsprintf+0x48>
40000d34:	24030030 	li	v1,48
40000d38:	82420001 	lb	v0,1(s2)
40000d3c:	104300a0 	beq	v0,v1,40000fc0 <vsprintf+0x2f0>
40000d40:	24170030 	li	s7,48
40000d44:	26520001 	addiu	s2,s2,1
40000d48:	24170020 	li	s7,32
40000d4c:	2443ffd0 	addiu	v1,v0,-48
40000d50:	306300ff 	andi	v1,v1,0xff
40000d54:	2c63000a 	sltiu	v1,v1,10
40000d58:	1060000d 	beqz	v1,40000d90 <vsprintf+0xc0>
40000d5c:	2411ffff 	li	s1,-1
40000d60:	00008821 	move	s1,zero
40000d64:	00111840 	sll	v1,s1,0x1
40000d68:	001188c0 	sll	s1,s1,0x3
40000d6c:	00718821 	addu	s1,v1,s1
40000d70:	26520001 	addiu	s2,s2,1
40000d74:	02228821 	addu	s1,s1,v0
40000d78:	82420000 	lb	v0,0(s2)
40000d7c:	2443ffd0 	addiu	v1,v0,-48
40000d80:	306300ff 	andi	v1,v1,0xff
40000d84:	2c63000a 	sltiu	v1,v1,10
40000d88:	1460fff6 	bnez	v1,40000d64 <vsprintf+0x94>
40000d8c:	2631ffd0 	addiu	s1,s1,-48
40000d90:	2403006c 	li	v1,108
40000d94:	10430087 	beq	v0,v1,40000fb4 <vsprintf+0x2e4>
40000d98:	00000000 	nop
40000d9c:	2442ffa8 	addiu	v0,v0,-88
40000da0:	304200ff 	andi	v0,v0,0xff
40000da4:	2c430021 	sltiu	v1,v0,33
40000da8:	1060ffdd 	beqz	v1,40000d20 <vsprintf+0x50>
40000dac:	3c034000 	lui	v1,0x4000
40000db0:	00021080 	sll	v0,v0,0x2
40000db4:	24633340 	addiu	v1,v1,13120
40000db8:	00621021 	addu	v0,v1,v0
40000dbc:	8c420000 	lw	v0,0(v0)
40000dc0:	00400008 	jr	v0
40000dc4:	00000000 	nop
40000dc8:	2416000a 	li	s6,10
40000dcc:	8fa30050 	lw	v1,80(sp)
40000dd0:	8c740000 	lw	s4,0(v1)
40000dd4:	24730004 	addiu	s3,v1,4
40000dd8:	1680007c 	bnez	s4,40000fcc <vsprintf+0x2fc>
40000ddc:	24020030 	li	v0,48
40000de0:	afb30050 	sw	s3,80(sp)
40000de4:	a3a20010 	sb	v0,16(sp)
40000de8:	0000a821 	move	s5,zero
40000dec:	24130001 	li	s3,1
40000df0:	27be0010 	addiu	s8,sp,16
40000df4:	02339823 	subu	s3,s1,s3
40000df8:	1a60000b 	blez	s3,40000e28 <vsprintf+0x158>
40000dfc:	24020001 	li	v0,1
40000e00:	2673ffff 	addiu	s3,s3,-1
40000e04:	2414ffff 	li	s4,-1
40000e08:	2673ffff 	addiu	s3,s3,-1
40000e0c:	02002021 	move	a0,s0
40000e10:	0c000326 	jal	40000c98 <printchar>
40000e14:	02e02821 	move	a1,s7
40000e18:	1674fffc 	bne	s3,s4,40000e0c <vsprintf+0x13c>
40000e1c:	2673ffff 	addiu	s3,s3,-1
40000e20:	26730001 	addiu	s3,s3,1
40000e24:	24020001 	li	v0,1
40000e28:	03d58821 	addu	s1,s8,s5
40000e2c:	005ef023 	subu	s8,v0,s8
40000e30:	82250000 	lb	a1,0(s1)
40000e34:	02002021 	move	a0,s0
40000e38:	0c000326 	jal	40000c98 <printchar>
40000e3c:	2631ffff 	addiu	s1,s1,-1
40000e40:	03d11021 	addu	v0,s8,s1
40000e44:	1c40fffa 	bgtz	v0,40000e30 <vsprintf+0x160>
40000e48:	00000000 	nop
40000e4c:	82450001 	lb	a1,1(s2)
40000e50:	14a0ffb6 	bnez	a1,40000d2c <vsprintf+0x5c>
40000e54:	26520001 	addiu	s2,s2,1
40000e58:	02002021 	move	a0,s0
40000e5c:	0c000326 	jal	40000c98 <printchar>
40000e60:	00002821 	move	a1,zero
40000e64:	8fbf0044 	lw	ra,68(sp)
40000e68:	00001021 	move	v0,zero
40000e6c:	8fbe0040 	lw	s8,64(sp)
40000e70:	8fb7003c 	lw	s7,60(sp)
40000e74:	8fb60038 	lw	s6,56(sp)
40000e78:	8fb50034 	lw	s5,52(sp)
40000e7c:	8fb40030 	lw	s4,48(sp)
40000e80:	8fb3002c 	lw	s3,44(sp)
40000e84:	8fb20028 	lw	s2,40(sp)
40000e88:	8fb10024 	lw	s1,36(sp)
40000e8c:	8fb00020 	lw	s0,32(sp)
40000e90:	03e00008 	jr	ra
40000e94:	27bd0048 	addiu	sp,sp,72
40000e98:	8fa30050 	lw	v1,80(sp)
40000e9c:	8c730000 	lw	s3,0(v1)
40000ea0:	1260004c 	beqz	s3,40000fd4 <vsprintf+0x304>
40000ea4:	24750004 	addiu	s5,v1,4
40000ea8:	82650000 	lb	a1,0(s3)
40000eac:	10a0000c 	beqz	a1,40000ee0 <vsprintf+0x210>
40000eb0:	00000000 	nop
40000eb4:	12200014 	beqz	s1,40000f08 <vsprintf+0x238>
40000eb8:	00000000 	nop
40000ebc:	080003b3 	j	40000ecc <vsprintf+0x1fc>
40000ec0:	26730001 	addiu	s3,s3,1
40000ec4:	12200010 	beqz	s1,40000f08 <vsprintf+0x238>
40000ec8:	26730001 	addiu	s3,s3,1
40000ecc:	0c000326 	jal	40000c98 <printchar>
40000ed0:	02002021 	move	a0,s0
40000ed4:	82650000 	lb	a1,0(s3)
40000ed8:	14a0fffa 	bnez	a1,40000ec4 <vsprintf+0x1f4>
40000edc:	2631ffff 	addiu	s1,s1,-1
40000ee0:	2633ffff 	addiu	s3,s1,-1
40000ee4:	1a200008 	blez	s1,40000f08 <vsprintf+0x238>
40000ee8:	2414ffff 	li	s4,-1
40000eec:	2673ffff 	addiu	s3,s3,-1
40000ef0:	02002021 	move	a0,s0
40000ef4:	0c000326 	jal	40000c98 <printchar>
40000ef8:	02e02821 	move	a1,s7
40000efc:	1674fffc 	bne	s3,s4,40000ef0 <vsprintf+0x220>
40000f00:	2673ffff 	addiu	s3,s3,-1
40000f04:	26730001 	addiu	s3,s3,1
40000f08:	08000348 	j	40000d20 <vsprintf+0x50>
40000f0c:	afb50050 	sw	s5,80(sp)
40000f10:	8fa30050 	lw	v1,80(sp)
40000f14:	2416000a 	li	s6,10
40000f18:	8c740000 	lw	s4,0(v1)
40000f1c:	0681ffae 	bgez	s4,40000dd8 <vsprintf+0x108>
40000f20:	24730004 	addiu	s3,v1,4
40000f24:	02002021 	move	a0,s0
40000f28:	0c000326 	jal	40000c98 <printchar>
40000f2c:	2405002d 	li	a1,45
40000f30:	0014a023 	negu	s4,s4
40000f34:	2631ffff 	addiu	s1,s1,-1
40000f38:	afb30050 	sw	s3,80(sp)
40000f3c:	2416000a 	li	s6,10
40000f40:	00009821 	move	s3,zero
40000f44:	27be0010 	addiu	s8,sp,16
40000f48:	02802021 	move	a0,s4
40000f4c:	0280a821 	move	s5,s4
40000f50:	0c00048f 	jal	4000123c <__udivsi3>
40000f54:	02c02821 	move	a1,s6
40000f58:	02a02021 	move	a0,s5
40000f5c:	02c02821 	move	a1,s6
40000f60:	0c000491 	jal	40001244 <__umodsi3>
40000f64:	0040a021 	move	s4,v0
40000f68:	3c034000 	lui	v1,0x4000
40000f6c:	246332bc 	addiu	v1,v1,12988
40000f70:	00621021 	addu	v0,v1,v0
40000f74:	90430000 	lbu	v1,0(v0)
40000f78:	03d31021 	addu	v0,s8,s3
40000f7c:	26730001 	addiu	s3,s3,1
40000f80:	1680fff1 	bnez	s4,40000f48 <vsprintf+0x278>
40000f84:	a0430000 	sb	v1,0(v0)
40000f88:	0800037d 	j	40000df4 <vsprintf+0x124>
40000f8c:	2675ffff 	addiu	s5,s3,-1
40000f90:	8fa30050 	lw	v1,80(sp)
40000f94:	02002021 	move	a0,s0
40000f98:	80650003 	lb	a1,3(v1)
40000f9c:	0c000326 	jal	40000c98 <printchar>
40000fa0:	24710004 	addiu	s1,v1,4
40000fa4:	08000348 	j	40000d20 <vsprintf+0x50>
40000fa8:	afb10050 	sw	s1,80(sp)
40000fac:	08000373 	j	40000dcc <vsprintf+0xfc>
40000fb0:	24160010 	li	s6,16
40000fb4:	82420001 	lb	v0,1(s2)
40000fb8:	08000367 	j	40000d9c <vsprintf+0xcc>
40000fbc:	26520001 	addiu	s2,s2,1
40000fc0:	82420002 	lb	v0,2(s2)
40000fc4:	08000353 	j	40000d4c <vsprintf+0x7c>
40000fc8:	26520002 	addiu	s2,s2,2
40000fcc:	080003d0 	j	40000f40 <vsprintf+0x270>
40000fd0:	afb30050 	sw	s3,80(sp)
40000fd4:	3c024000 	lui	v0,0x4000
40000fd8:	080003aa 	j	40000ea8 <vsprintf+0x1d8>
40000fdc:	245332dc 	addiu	s3,v0,13020

40000fe0 <strncpy>:
40000fe0:	18c0000e 	blez	a2,4000101c <strncpy+0x3c>
40000fe4:	00801021 	move	v0,a0
40000fe8:	80a40000 	lb	a0,0(a1)
40000fec:	24430001 	addiu	v1,v0,1
40000ff0:	10800017 	beqz	a0,40001050 <strncpy+0x70>
40000ff4:	a0440000 	sb	a0,0(v0)
40000ff8:	08000404 	j	40001010 <strncpy+0x30>
40000ffc:	00002021 	move	a0,zero
40001000:	80e70000 	lb	a3,0(a3)
40001004:	a0670000 	sb	a3,0(v1)
40001008:	10e00006 	beqz	a3,40001024 <strncpy+0x44>
4000100c:	24630001 	addiu	v1,v1,1
40001010:	24840001 	addiu	a0,a0,1
40001014:	1486fffa 	bne	a0,a2,40001000 <strncpy+0x20>
40001018:	00a43821 	addu	a3,a1,a0
4000101c:	03e00008 	jr	ra
40001020:	00000000 	nop
40001024:	24840001 	addiu	a0,a0,1
40001028:	0086282a 	slt	a1,a0,a2
4000102c:	10a0fffb 	beqz	a1,4000101c <strncpy+0x3c>
40001030:	00663021 	addu	a2,v1,a2
40001034:	00c42023 	subu	a0,a2,a0
40001038:	a0600000 	sb	zero,0(v1)
4000103c:	24630001 	addiu	v1,v1,1
40001040:	1464fffd 	bne	v1,a0,40001038 <strncpy+0x58>
40001044:	00000000 	nop
40001048:	03e00008 	jr	ra
4000104c:	00000000 	nop
40001050:	0800040a 	j	40001028 <strncpy+0x48>
40001054:	24040001 	li	a0,1

40001058 <memset>:
40001058:	10c00007 	beqz	a2,40001078 <memset+0x20>
4000105c:	00801021 	move	v0,a0
40001060:	30a500ff 	andi	a1,a1,0xff
40001064:	00801821 	move	v1,a0
40001068:	24c6ffff 	addiu	a2,a2,-1
4000106c:	a0650000 	sb	a1,0(v1)
40001070:	14c0fffd 	bnez	a2,40001068 <memset+0x10>
40001074:	24630001 	addiu	v1,v1,1
40001078:	03e00008 	jr	ra
4000107c:	00000000 	nop

40001080 <random>:
40001080:	3c034000 	lui	v1,0x4000
40001084:	8c623cf8 	lw	v0,15608(v1)
40001088:	00022ac0 	sll	a1,v0,0xb
4000108c:	000220c0 	sll	a0,v0,0x3
40001090:	00a42023 	subu	a0,a1,a0
40001094:	00822021 	addu	a0,a0,v0
40001098:	000421c0 	sll	a0,a0,0x7
4000109c:	00822021 	addu	a0,a0,v0
400010a0:	000420c0 	sll	a0,a0,0x3
400010a4:	00822023 	subu	a0,a0,v0
400010a8:	00042940 	sll	a1,a0,0x5
400010ac:	00852021 	addu	a0,a0,a1
400010b0:	00042080 	sll	a0,a0,0x2
400010b4:	00822023 	subu	a0,a0,v0
400010b8:	00042080 	sll	a0,a0,0x2
400010bc:	00821021 	addu	v0,a0,v0
400010c0:	24443039 	addiu	a0,v0,12345
400010c4:	00041402 	srl	v0,a0,0x10
400010c8:	ac643cf8 	sw	a0,15608(v1)
400010cc:	03e00008 	jr	ra
400010d0:	30427fff 	andi	v0,v0,0x7fff

400010d4 <printf>:
400010d4:	27bdffe0 	addiu	sp,sp,-32
400010d8:	27a20024 	addiu	v0,sp,36
400010dc:	00801821 	move	v1,a0
400010e0:	afa50024 	sw	a1,36(sp)
400010e4:	afa60028 	sw	a2,40(sp)
400010e8:	00002021 	move	a0,zero
400010ec:	00602821 	move	a1,v1
400010f0:	00403021 	move	a2,v0
400010f4:	afbf001c 	sw	ra,28(sp)
400010f8:	afa7002c 	sw	a3,44(sp)
400010fc:	0c000334 	jal	40000cd0 <vsprintf>
40001100:	afa20010 	sw	v0,16(sp)
40001104:	8fbf001c 	lw	ra,28(sp)
40001108:	03e00008 	jr	ra
4000110c:	27bd0020 	addiu	sp,sp,32

40001110 <__udivmodsi4>:
40001110:	00a4182b 	sltu	v1,a1,a0
40001114:	1060001e 	beqz	v1,40001190 <__udivmodsi4+0x80>
40001118:	00801021 	move	v0,a0
4000111c:	04a0001c 	bltz	a1,40001190 <__udivmodsi4+0x80>
40001120:	24040020 	li	a0,32
40001124:	0800044f 	j	4000113c <__udivmodsi4+0x2c>
40001128:	24030001 	li	v1,1
4000112c:	10800013 	beqz	a0,4000117c <__udivmodsi4+0x6c>
40001130:	00003821 	move	a3,zero
40001134:	04a00009 	bltz	a1,4000115c <__udivmodsi4+0x4c>
40001138:	00000000 	nop
4000113c:	00052840 	sll	a1,a1,0x1
40001140:	00a2382b 	sltu	a3,a1,v0
40001144:	2484ffff 	addiu	a0,a0,-1
40001148:	14e0fff8 	bnez	a3,4000112c <__udivmodsi4+0x1c>
4000114c:	00031840 	sll	v1,v1,0x1
40001150:	1060000a 	beqz	v1,4000117c <__udivmodsi4+0x6c>
40001154:	00003821 	move	a3,zero
40001158:	00003821 	move	a3,zero
4000115c:	0045202b 	sltu	a0,v0,a1
40001160:	14800003 	bnez	a0,40001170 <__udivmodsi4+0x60>
40001164:	00000000 	nop
40001168:	00451023 	subu	v0,v0,a1
4000116c:	00e33825 	or	a3,a3,v1
40001170:	00031842 	srl	v1,v1,0x1
40001174:	1460fff9 	bnez	v1,4000115c <__udivmodsi4+0x4c>
40001178:	00052842 	srl	a1,a1,0x1
4000117c:	14c00002 	bnez	a2,40001188 <__udivmodsi4+0x78>
40001180:	00000000 	nop
40001184:	00e01021 	move	v0,a3
40001188:	03e00008 	jr	ra
4000118c:	00000000 	nop
40001190:	08000456 	j	40001158 <__udivmodsi4+0x48>
40001194:	24030001 	li	v1,1

40001198 <__divsi3>:
40001198:	27bdffe8 	addiu	sp,sp,-24
4000119c:	afb00010 	sw	s0,16(sp)
400011a0:	afbf0014 	sw	ra,20(sp)
400011a4:	0480000b 	bltz	a0,400011d4 <__divsi3+0x3c>
400011a8:	00008021 	move	s0,zero
400011ac:	04a0000c 	bltz	a1,400011e0 <__divsi3+0x48>
400011b0:	00000000 	nop
400011b4:	0c000444 	jal	40001110 <__udivmodsi4>
400011b8:	00003021 	move	a2,zero
400011bc:	12000002 	beqz	s0,400011c8 <__divsi3+0x30>
400011c0:	8fbf0014 	lw	ra,20(sp)
400011c4:	00021023 	negu	v0,v0
400011c8:	8fb00010 	lw	s0,16(sp)
400011cc:	03e00008 	jr	ra
400011d0:	27bd0018 	addiu	sp,sp,24
400011d4:	00042023 	negu	a0,a0
400011d8:	04a1fff6 	bgez	a1,400011b4 <__divsi3+0x1c>
400011dc:	24100001 	li	s0,1
400011e0:	00052823 	negu	a1,a1
400011e4:	0800046d 	j	400011b4 <__divsi3+0x1c>
400011e8:	3a100001 	xori	s0,s0,0x1

400011ec <__modsi3>:
400011ec:	27bdffe8 	addiu	sp,sp,-24
400011f0:	04800008 	bltz	a0,40001214 <__modsi3+0x28>
400011f4:	afbf0014 	sw	ra,20(sp)
400011f8:	000517c3 	sra	v0,a1,0x1f
400011fc:	00452826 	xor	a1,v0,a1
40001200:	8fbf0014 	lw	ra,20(sp)
40001204:	00a22823 	subu	a1,a1,v0
40001208:	24060001 	li	a2,1
4000120c:	08000444 	j	40001110 <__udivmodsi4>
40001210:	27bd0018 	addiu	sp,sp,24
40001214:	00051fc3 	sra	v1,a1,0x1f
40001218:	00652826 	xor	a1,v1,a1
4000121c:	00042023 	negu	a0,a0
40001220:	00a32823 	subu	a1,a1,v1
40001224:	0c000444 	jal	40001110 <__udivmodsi4>
40001228:	24060001 	li	a2,1
4000122c:	8fbf0014 	lw	ra,20(sp)
40001230:	00021023 	negu	v0,v0
40001234:	03e00008 	jr	ra
40001238:	27bd0018 	addiu	sp,sp,24

4000123c <__udivsi3>:
4000123c:	08000444 	j	40001110 <__udivmodsi4>
40001240:	00003021 	move	a2,zero

40001244 <__umodsi3>:
40001244:	08000444 	j	40001110 <__udivmodsi4>
40001248:	24060001 	li	a2,1

4000124c <__udivmoddi4>:
4000124c:	27bdfff8 	addiu	sp,sp,-8
40001250:	00c74025 	or	t0,a2,a3
40001254:	afb10004 	sw	s1,4(sp)
40001258:	afb00000 	sw	s0,0(sp)
4000125c:	8fb80018 	lw	t8,24(sp)
40001260:	24030001 	li	v1,1
40001264:	11000032 	beqz	t0,40001330 <__udivmoddi4+0xe4>
40001268:	00001021 	move	v0,zero
4000126c:	24090001 	li	t1,1
40001270:	04c0000e 	bltz	a2,400012ac <__udivmoddi4+0x60>
40001274:	00004021 	move	t0,zero
40001278:	00075fc2 	srl	t3,a3,0x1f
4000127c:	00063040 	sll	a2,a2,0x1
40001280:	000957c2 	srl	t2,t1,0x1f
40001284:	00081840 	sll	v1,t0,0x1
40001288:	00091040 	sll	v0,t1,0x1
4000128c:	01663025 	or	a2,t3,a2
40001290:	01434025 	or	t0,t2,v1
40001294:	00073840 	sll	a3,a3,0x1
40001298:	04c1fff7 	bgez	a2,40001278 <__udivmoddi4+0x2c>
4000129c:	00404821 	move	t1,v0
400012a0:	00481025 	or	v0,v0,t0
400012a4:	10400026 	beqz	v0,40001340 <__udivmoddi4+0xf4>
400012a8:	00001821 	move	v1,zero
400012ac:	00001821 	move	v1,zero
400012b0:	00001021 	move	v0,zero
400012b4:	0086782b 	sltu	t7,a0,a2
400012b8:	00087042 	srl	t6,t0,0x1
400012bc:	00086fc0 	sll	t5,t0,0x1f
400012c0:	00095042 	srl	t2,t1,0x1
400012c4:	000667c0 	sll	t4,a2,0x1f
400012c8:	15e0000f 	bnez	t7,40001308 <__udivmoddi4+0xbc>
400012cc:	00075842 	srl	t3,a3,0x1
400012d0:	00a77823 	subu	t7,a1,a3
400012d4:	00694821 	addu	t1,v1,t1
400012d8:	00484021 	addu	t0,v0,t0
400012dc:	0123882b 	sltu	s1,t1,v1
400012e0:	00afc82b 	sltu	t9,a1,t7
400012e4:	00868023 	subu	s0,a0,a2
400012e8:	14c40003 	bne	a2,a0,400012f8 <__udivmoddi4+0xac>
400012ec:	00a7382b 	sltu	a3,a1,a3
400012f0:	14e00005 	bnez	a3,40001308 <__udivmoddi4+0xbc>
400012f4:	00000000 	nop
400012f8:	02281021 	addu	v0,s1,t0
400012fc:	02192023 	subu	a0,s0,t9
40001300:	01e02821 	move	a1,t7
40001304:	01201821 	move	v1,t1
40001308:	01aa4825 	or	t1,t5,t2
4000130c:	01c95025 	or	t2,t6,t1
40001310:	01c04021 	move	t0,t6
40001314:	00063042 	srl	a2,a2,0x1
40001318:	1540ffe6 	bnez	t2,400012b4 <__udivmoddi4+0x68>
4000131c:	018b3825 	or	a3,t4,t3
40001320:	13000004 	beqz	t8,40001334 <__udivmoddi4+0xe8>
40001324:	8fb10004 	lw	s1,4(sp)
40001328:	af040000 	sw	a0,0(t8)
4000132c:	af050004 	sw	a1,4(t8)
40001330:	8fb10004 	lw	s1,4(sp)
40001334:	8fb00000 	lw	s0,0(sp)
40001338:	03e00008 	jr	ra
4000133c:	27bd0008 	addiu	sp,sp,8
40001340:	080004c8 	j	40001320 <__udivmoddi4+0xd4>
40001344:	00001021 	move	v0,zero

40001348 <__udivdi3>:
40001348:	27bdffe0 	addiu	sp,sp,-32
4000134c:	afbf001c 	sw	ra,28(sp)
40001350:	0c000493 	jal	4000124c <__udivmoddi4>
40001354:	afa00010 	sw	zero,16(sp)
40001358:	8fbf001c 	lw	ra,28(sp)
4000135c:	03e00008 	jr	ra
40001360:	27bd0020 	addiu	sp,sp,32

40001364 <idletask>:
40001364:	3c024008 	lui	v0,0x4008
40001368:	8c45f154 	lw	a1,-3756(v0)
4000136c:	3c044000 	lui	a0,0x4000
40001370:	27bdffe8 	addiu	sp,sp,-24
40001374:	afbf0014 	sw	ra,20(sp)
40001378:	0c000226 	jal	40000898 <kprintf>
4000137c:	248433c4 	addiu	a0,a0,13252
40001380:	3c044000 	lui	a0,0x4000
40001384:	0c000226 	jal	40000898 <kprintf>
40001388:	248433e4 	addiu	a0,a0,13284
4000138c:	0c0006bd 	jal	40001af4 <hf_schedlock>
40001390:	00002021 	move	a0,zero
40001394:	0c00014e 	jal	40000538 <_cpu_idle>
40001398:	00000000 	nop
4000139c:	0c00014e 	jal	40000538 <_cpu_idle>
400013a0:	00000000 	nop
400013a4:	080004e5 	j	40001394 <idletask+0x30>
400013a8:	00000000 	nop

400013ac <main>:
400013ac:	27bdffd0 	addiu	sp,sp,-48
400013b0:	afbf002c 	sw	ra,44(sp)
400013b4:	afb40028 	sw	s4,40(sp)
400013b8:	afb30024 	sw	s3,36(sp)
400013bc:	afb20020 	sw	s2,32(sp)
400013c0:	afb1001c 	sw	s1,28(sp)
400013c4:	0c0000ff 	jal	400003fc <_hardware_init>
400013c8:	afb00018 	sw	s0,24(sp)
400013cc:	0c0006bd 	jal	40001af4 <hf_schedlock>
400013d0:	24040001 	li	a0,1
400013d4:	0c000082 	jal	40000208 <_interrupt_set>
400013d8:	00002021 	move	a0,zero
400013dc:	3c044000 	lui	a0,0x4000
400013e0:	0c000226 	jal	40000898 <kprintf>
400013e4:	24843400 	addiu	a0,a0,13312
400013e8:	3c024000 	lui	v0,0x4000
400013ec:	8c443cfc 	lw	a0,15612(v0)
400013f0:	3c03baad 	lui	v1,0xbaad
400013f4:	3463d00d 	ori	v1,v1,0xd00d
400013f8:	1083000c 	beq	a0,v1,4000142c <main+0x80>
400013fc:	3c044000 	lui	a0,0x4000
40001400:	0c00064a 	jal	40001928 <panic>
40001404:	24040001 	li	a0,1
40001408:	8fbf002c 	lw	ra,44(sp)
4000140c:	00001021 	move	v0,zero
40001410:	8fb40028 	lw	s4,40(sp)
40001414:	8fb30024 	lw	s3,36(sp)
40001418:	8fb20020 	lw	s2,32(sp)
4000141c:	8fb1001c 	lw	s1,28(sp)
40001420:	8fb00018 	lw	s0,24(sp)
40001424:	03e00008 	jr	ra
40001428:	27bd0030 	addiu	sp,sp,48
4000142c:	24843414 	addiu	a0,a0,13332
40001430:	0c000226 	jal	40000898 <kprintf>
40001434:	ac403cfc 	sw	zero,15612(v0)
40001438:	3c064000 	lui	a2,0x4000
4000143c:	3c074000 	lui	a3,0x4000
40001440:	3c054000 	lui	a1,0x4000
40001444:	3c044000 	lui	a0,0x4000
40001448:	3c024000 	lui	v0,0x4000
4000144c:	24c63480 	addiu	a2,a2,13440
40001450:	24e73488 	addiu	a3,a3,13448
40001454:	24a53474 	addiu	a1,a1,13428
40001458:	24843454 	addiu	a0,a0,13396
4000145c:	24423494 	addiu	v0,v0,13460
40001460:	0c000226 	jal	40000898 <kprintf>
40001464:	afa20010 	sw	v0,16(sp)
40001468:	3c044000 	lui	a0,0x4000
4000146c:	0c000226 	jal	40000898 <kprintf>
40001470:	248434a0 	addiu	a0,a0,13472
40001474:	3c044000 	lui	a0,0x4000
40001478:	0c000226 	jal	40000898 <kprintf>
4000147c:	248434d8 	addiu	a0,a0,13528
40001480:	3c044000 	lui	a0,0x4000
40001484:	3c054000 	lui	a1,0x4000
40001488:	24843518 	addiu	a0,a0,13592
4000148c:	0c000226 	jal	40000898 <kprintf>
40001490:	24a5352c 	addiu	a1,a1,13612
40001494:	3c044000 	lui	a0,0x4000
40001498:	2484353c 	addiu	a0,a0,13628
4000149c:	0c000226 	jal	40000898 <kprintf>
400014a0:	240561a8 	li	a1,25000
400014a4:	3c044000 	lui	a0,0x4000
400014a8:	3c050007 	lui	a1,0x7
400014ac:	24843554 	addiu	a0,a0,13652
400014b0:	0c000226 	jal	40000898 <kprintf>
400014b4:	34a5a120 	ori	a1,a1,0xa120
400014b8:	3c044000 	lui	a0,0x4000
400014bc:	24843570 	addiu	a0,a0,13680
400014c0:	2405001e 	li	a1,30
400014c4:	0c000226 	jal	40000898 <kprintf>
400014c8:	3c144000 	lui	s4,0x4000
400014cc:	0c000101 	jal	40000404 <_vm_init>
400014d0:	00008821 	move	s1,zero
400014d4:	26943dbc 	addiu	s4,s4,15804
400014d8:	3c104008 	lui	s0,0x4008
400014dc:	2413ffff 	li	s3,-1
400014e0:	2412001e 	li	s2,30
400014e4:	001118c0 	sll	v1,s1,0x3
400014e8:	00111140 	sll	v0,s1,0x5
400014ec:	00621021 	addu	v0,v1,v0
400014f0:	00511023 	subu	v0,v0,s1
400014f4:	00021080 	sll	v0,v0,0x2
400014f8:	02821021 	addu	v0,s4,v0
400014fc:	24440002 	addiu	a0,v0,2
40001500:	00002821 	move	a1,zero
40001504:	24060014 	li	a2,20
40001508:	a4530000 	sh	s3,0(v0)
4000150c:	0c000416 	jal	40001058 <memset>
40001510:	ae02f144 	sw	v0,-3772(s0)
40001514:	8e02f144 	lw	v0,-3772(s0)
40001518:	26310001 	addiu	s1,s1,1
4000151c:	a0400016 	sb	zero,22(v0)
40001520:	a0400017 	sb	zero,23(v0)
40001524:	a0400018 	sb	zero,24(v0)
40001528:	ac40001c 	sw	zero,28(v0)
4000152c:	ac400020 	sw	zero,32(v0)
40001530:	ac400024 	sw	zero,36(v0)
40001534:	ac400028 	sw	zero,40(v0)
40001538:	ac40002c 	sw	zero,44(v0)
4000153c:	a4400030 	sh	zero,48(v0)
40001540:	a4400032 	sh	zero,50(v0)
40001544:	a4400034 	sh	zero,52(v0)
40001548:	a4400036 	sh	zero,54(v0)
4000154c:	a4400038 	sh	zero,56(v0)
40001550:	ac40008c 	sw	zero,140(v0)
40001554:	ac400090 	sw	zero,144(v0)
40001558:	ac400094 	sw	zero,148(v0)
4000155c:	1632ffe1 	bne	s1,s2,400014e4 <main+0x138>
40001560:	ac400098 	sw	zero,152(v0)
40001564:	3c054008 	lui	a1,0x4008
40001568:	a4a0f150 	sh	zero,-3760(a1)
4000156c:	3c054008 	lui	a1,0x4008
40001570:	a4a0f140 	sh	zero,-3776(a1)
40001574:	3c054008 	lui	a1,0x4008
40001578:	a4a0f160 	sh	zero,-3744(a1)
4000157c:	3c054000 	lui	a1,0x4000
40001580:	3c034008 	lui	v1,0x4008
40001584:	24a52390 	addiu	a1,a1,9104
40001588:	2462f124 	addiu	v0,v1,-3804
4000158c:	ac65f124 	sw	a1,-3804(v1)
40001590:	3c034000 	lui	v1,0x4000
40001594:	24632224 	addiu	v1,v1,8740
40001598:	ac430004 	sw	v1,4(v0)
4000159c:	3c034000 	lui	v1,0x4000
400015a0:	24632114 	addiu	v1,v1,8468
400015a4:	ac430018 	sw	v1,24(v0)
400015a8:	2404001e 	li	a0,30
400015ac:	ac400008 	sw	zero,8(v0)
400015b0:	ac40000c 	sw	zero,12(v0)
400015b4:	ac400010 	sw	zero,16(v0)
400015b8:	0c0006cd 	jal	40001b34 <hf_queue_create>
400015bc:	ac400014 	sw	zero,20(v0)
400015c0:	3c034008 	lui	v1,0x4008
400015c4:	10400035 	beqz	v0,4000169c <main+0x2f0>
400015c8:	ac62f158 	sw	v0,-3752(v1)
400015cc:	0c0006cd 	jal	40001b34 <hf_queue_create>
400015d0:	2404001e 	li	a0,30
400015d4:	3c034008 	lui	v1,0x4008
400015d8:	10400034 	beqz	v0,400016ac <main+0x300>
400015dc:	ac62f164 	sw	v0,-3740(v1)
400015e0:	0c0006cd 	jal	40001b34 <hf_queue_create>
400015e4:	2404001e 	li	a0,30
400015e8:	3c034008 	lui	v1,0x4008
400015ec:	10400033 	beqz	v0,400016bc <main+0x310>
400015f0:	ac62f15c 	sw	v0,-3748(v1)
400015f4:	0c0006cd 	jal	40001b34 <hf_queue_create>
400015f8:	2404001e 	li	a0,30
400015fc:	3c034008 	lui	v1,0x4008
40001600:	10400022 	beqz	v0,4000168c <main+0x2e0>
40001604:	ac62f14c 	sw	v0,-3764(v1)
40001608:	0c00010d 	jal	40000434 <_sched_init>
4000160c:	00000000 	nop
40001610:	0c000110 	jal	40000440 <_timer_init>
40001614:	00000000 	nop
40001618:	0c000178 	jal	400005e0 <_timer_reset>
4000161c:	00000000 	nop
40001620:	0c000124 	jal	40000490 <_irq_init>
40001624:	00000000 	nop
40001628:	3c024000 	lui	v0,0x4000
4000162c:	24423b3c 	addiu	v0,v0,15164
40001630:	3c044000 	lui	a0,0x4000
40001634:	00003021 	move	a2,zero
40001638:	00003821 	move	a3,zero
4000163c:	24841364 	addiu	a0,a0,4964
40001640:	00002821 	move	a1,zero
40001644:	afa20010 	sw	v0,16(sp)
40001648:	24020400 	li	v0,1024
4000164c:	0c000984 	jal	40002610 <hf_spawn>
40001650:	afa20014 	sw	v0,20(sp)
40001654:	0c000127 	jal	4000049c <_device_init>
40001658:	00000000 	nop
4000165c:	0c00012a 	jal	400004a8 <_task_init>
40001660:	00000000 	nop
40001664:	0c000c58 	jal	40003160 <app_main>
40001668:	00000000 	nop
4000166c:	8e04f144 	lw	a0,-3772(s0)
40001670:	24050001 	li	a1,1
40001674:	0c000097 	jal	4000025c <_context_restore>
40001678:	2484003c 	addiu	a0,a0,60
4000167c:	0c00064a 	jal	40001928 <panic>
40001680:	00002021 	move	a0,zero
40001684:	08000503 	j	4000140c <main+0x60>
40001688:	8fbf002c 	lw	ra,44(sp)
4000168c:	0c00064a 	jal	40001928 <panic>
40001690:	24040004 	li	a0,4
40001694:	08000582 	j	40001608 <main+0x25c>
40001698:	00000000 	nop
4000169c:	0c00064a 	jal	40001928 <panic>
400016a0:	24040004 	li	a0,4
400016a4:	08000573 	j	400015cc <main+0x220>
400016a8:	00000000 	nop
400016ac:	0c00064a 	jal	40001928 <panic>
400016b0:	24040004 	li	a0,4
400016b4:	08000578 	j	400015e0 <main+0x234>
400016b8:	00000000 	nop
400016bc:	0c00064a 	jal	40001928 <panic>
400016c0:	24040004 	li	a0,4
400016c4:	0800057d 	j	400015f4 <main+0x248>
400016c8:	00000000 	nop

400016cc <hf_free>:
400016cc:	27bdffe0 	addiu	sp,sp,-32
400016d0:	afb00014 	sw	s0,20(sp)
400016d4:	3c104000 	lui	s0,0x4000
400016d8:	afb10018 	sw	s1,24(sp)
400016dc:	00808821 	move	s1,a0
400016e0:	afbf001c 	sw	ra,28(sp)
400016e4:	0c000631 	jal	400018c4 <hf_mtxlock>
400016e8:	26043db8 	addiu	a0,s0,15800
400016ec:	3c024008 	lui	v0,0x4008
400016f0:	8e25fffc 	lw	a1,-4(s1)
400016f4:	8c43f154 	lw	v1,-3756(v0)
400016f8:	3c044008 	lui	a0,0x4008
400016fc:	8c86f16c 	lw	a2,-3732(a0)
40001700:	2404fffe 	li	a0,-2
40001704:	00a42024 	and	a0,a1,a0
40001708:	24630008 	addiu	v1,v1,8
4000170c:	ae24fffc 	sw	a0,-4(s1)
40001710:	00641821 	addu	v1,v1,a0
40001714:	3c054008 	lui	a1,0x4008
40001718:	26043db8 	addiu	a0,s0,15800
4000171c:	8fbf001c 	lw	ra,28(sp)
40001720:	8fb10018 	lw	s1,24(sp)
40001724:	8fb00014 	lw	s0,20(sp)
40001728:	27bd0020 	addiu	sp,sp,32
4000172c:	aca6f168 	sw	a2,-3736(a1)
40001730:	08000647 	j	4000191c <hf_mtxunlock>
40001734:	ac43f154 	sw	v1,-3756(v0)

40001738 <hf_malloc>:
40001738:	27bdffe0 	addiu	sp,sp,-32
4000173c:	afb20018 	sw	s2,24(sp)
40001740:	3c124000 	lui	s2,0x4000
40001744:	afb10014 	sw	s1,20(sp)
40001748:	2402fffc 	li	v0,-4
4000174c:	24910003 	addiu	s1,a0,3
40001750:	26443db8 	addiu	a0,s2,15800
40001754:	afb00010 	sw	s0,16(sp)
40001758:	afbf001c 	sw	ra,28(sp)
4000175c:	0c000631 	jal	400018c4 <hf_mtxlock>
40001760:	02228824 	and	s1,s1,v0
40001764:	3c074008 	lui	a3,0x4008
40001768:	8ce3f168 	lw	v1,-3736(a3)
4000176c:	2406fff8 	li	a2,-8
40001770:	26250008 	addiu	a1,s1,8
40001774:	00608021 	move	s0,v1
40001778:	8c640000 	lw	a0,0(v1)
4000177c:	10800035 	beqz	a0,40001854 <hf_malloc+0x11c>
40001780:	00000000 	nop
40001784:	8c620004 	lw	v0,4(v1)
40001788:	30420001 	andi	v0,v0,0x1
4000178c:	10400008 	beqz	v0,400017b0 <hf_malloc+0x78>
40001790:	00000000 	nop
40001794:	080005e8 	j	400017a0 <hf_malloc+0x68>
40001798:	00801821 	move	v1,a0
4000179c:	8c630000 	lw	v1,0(v1)
400017a0:	8c620004 	lw	v0,4(v1)
400017a4:	30420001 	andi	v0,v0,0x1
400017a8:	1440fffc 	bnez	v0,4000179c <hf_malloc+0x64>
400017ac:	00608021 	move	s0,v1
400017b0:	14400009 	bnez	v0,400017d8 <hf_malloc+0xa0>
400017b4:	00d01023 	subu	v0,a2,s0
400017b8:	8c640000 	lw	a0,0(v1)
400017bc:	10800006 	beqz	a0,400017d8 <hf_malloc+0xa0>
400017c0:	00d01023 	subu	v0,a2,s0
400017c4:	8c820004 	lw	v0,4(a0)
400017c8:	30420001 	andi	v0,v0,0x1
400017cc:	1040fffa 	beqz	v0,400017b8 <hf_malloc+0x80>
400017d0:	00801821 	move	v1,a0
400017d4:	00d01023 	subu	v0,a2,s0
400017d8:	00621021 	addu	v0,v1,v0
400017dc:	0045202b 	sltu	a0,v0,a1
400017e0:	ae020004 	sw	v0,4(s0)
400017e4:	1480ffe4 	bnez	a0,40001778 <hf_malloc+0x40>
400017e8:	ae030000 	sw	v1,0(s0)
400017ec:	3c024008 	lui	v0,0x4008
400017f0:	8c48f154 	lw	t0,-3756(v0)
400017f4:	36240001 	ori	a0,s1,0x1
400017f8:	2409fff8 	li	t1,-8
400017fc:	2406fffe 	li	a2,-2
40001800:	01314823 	subu	t1,t1,s1
40001804:	00863024 	and	a2,a0,a2
40001808:	02052821 	addu	a1,s0,a1
4000180c:	01263021 	addu	a2,t1,a2
40001810:	2508fff8 	addiu	t0,t0,-8
40001814:	acf0f168 	sw	s0,-3736(a3)
40001818:	ae040004 	sw	a0,4(s0)
4000181c:	ae050000 	sw	a1,0(s0)
40001820:	01118823 	subu	s1,t0,s1
40001824:	aca30000 	sw	v1,0(a1)
40001828:	aca60004 	sw	a2,4(a1)
4000182c:	26443db8 	addiu	a0,s2,15800
40001830:	0c000647 	jal	4000191c <hf_mtxunlock>
40001834:	ac51f154 	sw	s1,-3756(v0)
40001838:	26020008 	addiu	v0,s0,8
4000183c:	8fbf001c 	lw	ra,28(sp)
40001840:	8fb20018 	lw	s2,24(sp)
40001844:	8fb10014 	lw	s1,20(sp)
40001848:	8fb00010 	lw	s0,16(sp)
4000184c:	03e00008 	jr	ra
40001850:	27bd0020 	addiu	sp,sp,32
40001854:	0c000647 	jal	4000191c <hf_mtxunlock>
40001858:	26443db8 	addiu	a0,s2,15800
4000185c:	0800060f 	j	4000183c <hf_malloc+0x104>
40001860:	00001021 	move	v0,zero

40001864 <heapinit>:
40001864:	00801021 	move	v0,a0
40001868:	2403fffc 	li	v1,-4
4000186c:	24a40003 	addiu	a0,a1,3
40001870:	00831824 	and	v1,a0,v1
40001874:	00452821 	addu	a1,v0,a1
40001878:	2463fff0 	addiu	v1,v1,-16
4000187c:	24a4fff8 	addiu	a0,a1,-8
40001880:	ac430004 	sw	v1,4(v0)
40001884:	aca0fffc 	sw	zero,-4(a1)
40001888:	ac440000 	sw	a0,0(v0)
4000188c:	8c430004 	lw	v1,4(v0)
40001890:	aca0fff8 	sw	zero,-8(a1)
40001894:	3c054008 	lui	a1,0x4008
40001898:	aca2f16c 	sw	v0,-3732(a1)
4000189c:	3c044000 	lui	a0,0x4000
400018a0:	3c054008 	lui	a1,0x4008
400018a4:	aca2f168 	sw	v0,-3736(a1)
400018a8:	24843db8 	addiu	a0,a0,15800
400018ac:	3c024008 	lui	v0,0x4008
400018b0:	0800062e 	j	400018b8 <hf_mtxinit>
400018b4:	ac43f154 	sw	v1,-3756(v0)

400018b8 <hf_mtxinit>:
400018b8:	ac800000 	sw	zero,0(a0)
400018bc:	03e00008 	jr	ra
400018c0:	00000000 	nop

400018c4 <hf_mtxlock>:
400018c4:	27bdffd8 	addiu	sp,sp,-40
400018c8:	afb10020 	sw	s1,32(sp)
400018cc:	afb0001c 	sw	s0,28(sp)
400018d0:	afbf0024 	sw	ra,36(sp)
400018d4:	00808821 	move	s1,a0
400018d8:	24100001 	li	s0,1
400018dc:	0c000082 	jal	40000208 <_interrupt_set>
400018e0:	00002021 	move	a0,zero
400018e4:	afa20014 	sw	v0,20(sp)
400018e8:	8e220000 	lw	v0,0(s1)
400018ec:	afa20010 	sw	v0,16(sp)
400018f0:	ae300000 	sw	s0,0(s1)
400018f4:	8fa40014 	lw	a0,20(sp)
400018f8:	0c000082 	jal	40000208 <_interrupt_set>
400018fc:	00000000 	nop
40001900:	8fa20010 	lw	v0,16(sp)
40001904:	1050fff5 	beq	v0,s0,400018dc <hf_mtxlock+0x18>
40001908:	8fbf0024 	lw	ra,36(sp)
4000190c:	8fb10020 	lw	s1,32(sp)
40001910:	8fb0001c 	lw	s0,28(sp)
40001914:	03e00008 	jr	ra
40001918:	27bd0028 	addiu	sp,sp,40

4000191c <hf_mtxunlock>:
4000191c:	ac800000 	sw	zero,0(a0)
40001920:	03e00008 	jr	ra
40001924:	00000000 	nop

40001928 <panic>:
40001928:	27bdffe8 	addiu	sp,sp,-24
4000192c:	afb00010 	sw	s0,16(sp)
40001930:	00808021 	move	s0,a0
40001934:	afbf0014 	sw	ra,20(sp)
40001938:	0c000082 	jal	40000208 <_interrupt_set>
4000193c:	00002021 	move	a0,zero
40001940:	3c024008 	lui	v0,0x4008
40001944:	9445f140 	lhu	a1,-3776(v0)
40001948:	3c044000 	lui	a0,0x4000
4000194c:	0c000226 	jal	40000898 <kprintf>
40001950:	24843584 	addiu	a0,a0,13700
40001954:	2e020012 	sltiu	v0,s0,18
40001958:	1440000b 	bnez	v0,40001988 <panic+0x60>
4000195c:	3c024000 	lui	v0,0x4000
40001960:	3c044000 	lui	a0,0x4000
40001964:	0c000226 	jal	40000898 <kprintf>
40001968:	24843760 	addiu	a0,a0,14176
4000196c:	3c044000 	lui	a0,0x4000
40001970:	0c000435 	jal	400010d4 <printf>
40001974:	24843770 	addiu	a0,a0,14192
40001978:	0c00018b 	jal	4000062c <_panic>
4000197c:	00000000 	nop
40001980:	08000660 	j	40001980 <panic+0x58>
40001984:	00000000 	nop
40001988:	00108080 	sll	s0,s0,0x2
4000198c:	24423784 	addiu	v0,v0,14212
40001990:	00501021 	addu	v0,v0,s0
40001994:	8c420000 	lw	v0,0(v0)
40001998:	00400008 	jr	v0
4000199c:	00000000 	nop
400019a0:	3c044000 	lui	a0,0x4000
400019a4:	0c000226 	jal	40000898 <kprintf>
400019a8:	248435a0 	addiu	a0,a0,13728
400019ac:	0800065c 	j	40001970 <panic+0x48>
400019b0:	3c044000 	lui	a0,0x4000
400019b4:	3c044000 	lui	a0,0x4000
400019b8:	0c000226 	jal	40000898 <kprintf>
400019bc:	2484368c 	addiu	a0,a0,13964
400019c0:	0800065c 	j	40001970 <panic+0x48>
400019c4:	3c044000 	lui	a0,0x4000
400019c8:	3c044000 	lui	a0,0x4000
400019cc:	0c000226 	jal	40000898 <kprintf>
400019d0:	24843670 	addiu	a0,a0,13936
400019d4:	0800065c 	j	40001970 <panic+0x48>
400019d8:	3c044000 	lui	a0,0x4000
400019dc:	3c044000 	lui	a0,0x4000
400019e0:	0c000226 	jal	40000898 <kprintf>
400019e4:	248435e0 	addiu	a0,a0,13792
400019e8:	0800065c 	j	40001970 <panic+0x48>
400019ec:	3c044000 	lui	a0,0x4000
400019f0:	3c044000 	lui	a0,0x4000
400019f4:	0c000226 	jal	40000898 <kprintf>
400019f8:	2484374c 	addiu	a0,a0,14156
400019fc:	0800065c 	j	40001970 <panic+0x48>
40001a00:	3c044000 	lui	a0,0x4000
40001a04:	3c044000 	lui	a0,0x4000
40001a08:	0c000226 	jal	40000898 <kprintf>
40001a0c:	24843730 	addiu	a0,a0,14128
40001a10:	0800065c 	j	40001970 <panic+0x48>
40001a14:	3c044000 	lui	a0,0x4000
40001a18:	3c044000 	lui	a0,0x4000
40001a1c:	0c000226 	jal	40000898 <kprintf>
40001a20:	2484370c 	addiu	a0,a0,14092
40001a24:	0800065c 	j	40001970 <panic+0x48>
40001a28:	3c044000 	lui	a0,0x4000
40001a2c:	3c044000 	lui	a0,0x4000
40001a30:	0c000226 	jal	40000898 <kprintf>
40001a34:	248436ec 	addiu	a0,a0,14060
40001a38:	0800065c 	j	40001970 <panic+0x48>
40001a3c:	3c044000 	lui	a0,0x4000
40001a40:	3c044000 	lui	a0,0x4000
40001a44:	0c000226 	jal	40000898 <kprintf>
40001a48:	248436cc 	addiu	a0,a0,14028
40001a4c:	0800065c 	j	40001970 <panic+0x48>
40001a50:	3c044000 	lui	a0,0x4000
40001a54:	3c044000 	lui	a0,0x4000
40001a58:	0c000226 	jal	40000898 <kprintf>
40001a5c:	248436b4 	addiu	a0,a0,14004
40001a60:	0800065c 	j	40001970 <panic+0x48>
40001a64:	3c044000 	lui	a0,0x4000
40001a68:	3c044000 	lui	a0,0x4000
40001a6c:	0c000226 	jal	40000898 <kprintf>
40001a70:	2484363c 	addiu	a0,a0,13884
40001a74:	0800065c 	j	40001970 <panic+0x48>
40001a78:	3c044000 	lui	a0,0x4000
40001a7c:	3c044000 	lui	a0,0x4000
40001a80:	0c000226 	jal	40000898 <kprintf>
40001a84:	24843654 	addiu	a0,a0,13908
40001a88:	0800065c 	j	40001970 <panic+0x48>
40001a8c:	3c044000 	lui	a0,0x4000
40001a90:	3c044000 	lui	a0,0x4000
40001a94:	0c000226 	jal	40000898 <kprintf>
40001a98:	24843624 	addiu	a0,a0,13860
40001a9c:	0800065c 	j	40001970 <panic+0x48>
40001aa0:	3c044000 	lui	a0,0x4000
40001aa4:	3c044000 	lui	a0,0x4000
40001aa8:	0c000226 	jal	40000898 <kprintf>
40001aac:	24843614 	addiu	a0,a0,13844
40001ab0:	0800065c 	j	40001970 <panic+0x48>
40001ab4:	3c044000 	lui	a0,0x4000
40001ab8:	3c044000 	lui	a0,0x4000
40001abc:	0c000226 	jal	40000898 <kprintf>
40001ac0:	248435f4 	addiu	a0,a0,13812
40001ac4:	0800065c 	j	40001970 <panic+0x48>
40001ac8:	3c044000 	lui	a0,0x4000
40001acc:	3c044000 	lui	a0,0x4000
40001ad0:	0c000226 	jal	40000898 <kprintf>
40001ad4:	248435d0 	addiu	a0,a0,13776
40001ad8:	0800065c 	j	40001970 <panic+0x48>
40001adc:	3c044000 	lui	a0,0x4000
40001ae0:	3c044000 	lui	a0,0x4000
40001ae4:	0c000226 	jal	40000898 <kprintf>
40001ae8:	248435b4 	addiu	a0,a0,13748
40001aec:	0800065c 	j	40001970 <panic+0x48>
40001af0:	3c044000 	lui	a0,0x4000

40001af4 <hf_schedlock>:
40001af4:	27bdffe8 	addiu	sp,sp,-24
40001af8:	afbf0014 	sw	ra,20(sp)
40001afc:	afb00010 	sw	s0,16(sp)
40001b00:	0c000154 	jal	40000550 <_read_us>
40001b04:	00808021 	move	s0,a0
40001b08:	3c044000 	lui	a0,0x4000
40001b0c:	00602821 	move	a1,v1
40001b10:	0c0002a3 	jal	40000a8c <dprintf>
40001b14:	248437cc 	addiu	a0,a0,14284
40001b18:	8fbf0014 	lw	ra,20(sp)
40001b1c:	2e100001 	sltiu	s0,s0,1
40001b20:	3c024008 	lui	v0,0x4008
40001b24:	a450f160 	sh	s0,-3744(v0)
40001b28:	8fb00010 	lw	s0,16(sp)
40001b2c:	03e00008 	jr	ra
40001b30:	27bd0018 	addiu	sp,sp,24

40001b34 <hf_queue_create>:
40001b34:	27bdffe0 	addiu	sp,sp,-32
40001b38:	afb10018 	sw	s1,24(sp)
40001b3c:	00808821 	move	s1,a0
40001b40:	afb00014 	sw	s0,20(sp)
40001b44:	afbf001c 	sw	ra,28(sp)
40001b48:	0c0005ce 	jal	40001738 <hf_malloc>
40001b4c:	24040014 	li	a0,20
40001b50:	1040000a 	beqz	v0,40001b7c <hf_queue_create+0x48>
40001b54:	00408021 	move	s0,v0
40001b58:	26240001 	addiu	a0,s1,1
40001b5c:	ac440000 	sw	a0,0(v0)
40001b60:	0c0005ce 	jal	40001738 <hf_malloc>
40001b64:	00042080 	sll	a0,a0,0x2
40001b68:	1040000a 	beqz	v0,40001b94 <hf_queue_create+0x60>
40001b6c:	ae020010 	sw	v0,16(s0)
40001b70:	ae00000c 	sw	zero,12(s0)
40001b74:	ae000008 	sw	zero,8(s0)
40001b78:	ae000004 	sw	zero,4(s0)
40001b7c:	8fbf001c 	lw	ra,28(sp)
40001b80:	02001021 	move	v0,s0
40001b84:	8fb10018 	lw	s1,24(sp)
40001b88:	8fb00014 	lw	s0,20(sp)
40001b8c:	03e00008 	jr	ra
40001b90:	27bd0020 	addiu	sp,sp,32
40001b94:	0c0005b3 	jal	400016cc <hf_free>
40001b98:	02002021 	move	a0,s0
40001b9c:	080006df 	j	40001b7c <hf_queue_create+0x48>
40001ba0:	00008021 	move	s0,zero

40001ba4 <hf_queue_count>:
40001ba4:	03e00008 	jr	ra
40001ba8:	8c820004 	lw	v0,4(a0)

40001bac <hf_queue_addtail>:
40001bac:	8c820000 	lw	v0,0(a0)
40001bb0:	27bdffd8 	addiu	sp,sp,-40
40001bb4:	afb30020 	sw	s3,32(sp)
40001bb8:	afb10018 	sw	s1,24(sp)
40001bbc:	afb00014 	sw	s0,20(sp)
40001bc0:	afbf0024 	sw	ra,36(sp)
40001bc4:	afb2001c 	sw	s2,28(sp)
40001bc8:	00808021 	move	s0,a0
40001bcc:	00a09821 	move	s3,a1
40001bd0:	10400010 	beqz	v0,40001c14 <hf_queue_addtail+0x68>
40001bd4:	2411ffff 	li	s1,-1
40001bd8:	8c92000c 	lw	s2,12(a0)
40001bdc:	00402821 	move	a1,v0
40001be0:	0c00047b 	jal	400011ec <__modsi3>
40001be4:	26440001 	addiu	a0,s2,1
40001be8:	8e030008 	lw	v1,8(s0)
40001bec:	10620009 	beq	v1,v0,40001c14 <hf_queue_addtail+0x68>
40001bf0:	00129080 	sll	s2,s2,0x2
40001bf4:	8e030004 	lw	v1,4(s0)
40001bf8:	8e040010 	lw	a0,16(s0)
40001bfc:	24630001 	addiu	v1,v1,1
40001c00:	00929021 	addu	s2,a0,s2
40001c04:	ae530000 	sw	s3,0(s2)
40001c08:	00008821 	move	s1,zero
40001c0c:	ae02000c 	sw	v0,12(s0)
40001c10:	ae030004 	sw	v1,4(s0)
40001c14:	8fbf0024 	lw	ra,36(sp)
40001c18:	02201021 	move	v0,s1
40001c1c:	8fb30020 	lw	s3,32(sp)
40001c20:	8fb2001c 	lw	s2,28(sp)
40001c24:	8fb10018 	lw	s1,24(sp)
40001c28:	8fb00014 	lw	s0,20(sp)
40001c2c:	03e00008 	jr	ra
40001c30:	27bd0028 	addiu	sp,sp,40

40001c34 <hf_queue_remhead>:
40001c34:	8c850000 	lw	a1,0(a0)
40001c38:	27bdffe0 	addiu	sp,sp,-32
40001c3c:	afb10018 	sw	s1,24(sp)
40001c40:	afb00014 	sw	s0,20(sp)
40001c44:	afbf001c 	sw	ra,28(sp)
40001c48:	00808021 	move	s0,a0
40001c4c:	10a0000e 	beqz	a1,40001c88 <hf_queue_remhead+0x54>
40001c50:	00008821 	move	s1,zero
40001c54:	8c840008 	lw	a0,8(a0)
40001c58:	8e02000c 	lw	v0,12(s0)
40001c5c:	1082000a 	beq	a0,v0,40001c88 <hf_queue_remhead+0x54>
40001c60:	00041080 	sll	v0,a0,0x2
40001c64:	8e030010 	lw	v1,16(s0)
40001c68:	24840001 	addiu	a0,a0,1
40001c6c:	00621021 	addu	v0,v1,v0
40001c70:	0c00047b 	jal	400011ec <__modsi3>
40001c74:	8c510000 	lw	s1,0(v0)
40001c78:	8e030004 	lw	v1,4(s0)
40001c7c:	ae020008 	sw	v0,8(s0)
40001c80:	2463ffff 	addiu	v1,v1,-1
40001c84:	ae030004 	sw	v1,4(s0)
40001c88:	8fbf001c 	lw	ra,28(sp)
40001c8c:	02201021 	move	v0,s1
40001c90:	8fb00014 	lw	s0,20(sp)
40001c94:	8fb10018 	lw	s1,24(sp)
40001c98:	03e00008 	jr	ra
40001c9c:	27bd0020 	addiu	sp,sp,32

40001ca0 <hf_queue_get>:
40001ca0:	8c830000 	lw	v1,0(a0)
40001ca4:	27bdffe8 	addiu	sp,sp,-24
40001ca8:	afb00010 	sw	s0,16(sp)
40001cac:	afbf0014 	sw	ra,20(sp)
40001cb0:	00808021 	move	s0,a0
40001cb4:	1060000f 	beqz	v1,40001cf4 <hf_queue_get+0x54>
40001cb8:	00001021 	move	v0,zero
40001cbc:	8c840004 	lw	a0,4(a0)
40001cc0:	00a4202a 	slt	a0,a1,a0
40001cc4:	1080000c 	beqz	a0,40001cf8 <hf_queue_get+0x58>
40001cc8:	8fbf0014 	lw	ra,20(sp)
40001ccc:	8e040008 	lw	a0,8(s0)
40001cd0:	8e06000c 	lw	a2,12(s0)
40001cd4:	10860008 	beq	a0,a2,40001cf8 <hf_queue_get+0x58>
40001cd8:	00a42021 	addu	a0,a1,a0
40001cdc:	0c00047b 	jal	400011ec <__modsi3>
40001ce0:	00602821 	move	a1,v1
40001ce4:	8e030010 	lw	v1,16(s0)
40001ce8:	00021080 	sll	v0,v0,0x2
40001cec:	00621821 	addu	v1,v1,v0
40001cf0:	8c620000 	lw	v0,0(v1)
40001cf4:	8fbf0014 	lw	ra,20(sp)
40001cf8:	8fb00010 	lw	s0,16(sp)
40001cfc:	03e00008 	jr	ra
40001d00:	27bd0018 	addiu	sp,sp,24

40001d04 <hf_queue_swap>:
40001d04:	27bdffd8 	addiu	sp,sp,-40
40001d08:	afb10014 	sw	s1,20(sp)
40001d0c:	8c910000 	lw	s1,0(a0)
40001d10:	afb3001c 	sw	s3,28(sp)
40001d14:	afb00010 	sw	s0,16(sp)
40001d18:	afbf0024 	sw	ra,36(sp)
40001d1c:	afb40020 	sw	s4,32(sp)
40001d20:	afb20018 	sw	s2,24(sp)
40001d24:	00808021 	move	s0,a0
40001d28:	00c09821 	move	s3,a2
40001d2c:	1220001c 	beqz	s1,40001da0 <hf_queue_swap+0x9c>
40001d30:	2402ffff 	li	v0,-1
40001d34:	8c830004 	lw	v1,4(a0)
40001d38:	00a3202a 	slt	a0,a1,v1
40001d3c:	10800018 	beqz	a0,40001da0 <hf_queue_swap+0x9c>
40001d40:	00c3182a 	slt	v1,a2,v1
40001d44:	10600017 	beqz	v1,40001da4 <hf_queue_swap+0xa0>
40001d48:	8fbf0024 	lw	ra,36(sp)
40001d4c:	8e120008 	lw	s2,8(s0)
40001d50:	8e03000c 	lw	v1,12(s0)
40001d54:	12430013 	beq	s2,v1,40001da4 <hf_queue_swap+0xa0>
40001d58:	00b22021 	addu	a0,a1,s2
40001d5c:	8e140010 	lw	s4,16(s0)
40001d60:	0c00047b 	jal	400011ec <__modsi3>
40001d64:	02202821 	move	a1,s1
40001d68:	00021080 	sll	v0,v0,0x2
40001d6c:	02202821 	move	a1,s1
40001d70:	02722021 	addu	a0,s3,s2
40001d74:	0c00047b 	jal	400011ec <__modsi3>
40001d78:	02828821 	addu	s1,s4,v0
40001d7c:	00021880 	sll	v1,v0,0x2
40001d80:	0283a021 	addu	s4,s4,v1
40001d84:	8e850000 	lw	a1,0(s4)
40001d88:	8e240000 	lw	a0,0(s1)
40001d8c:	00001021 	move	v0,zero
40001d90:	ae250000 	sw	a1,0(s1)
40001d94:	8e050010 	lw	a1,16(s0)
40001d98:	00a31821 	addu	v1,a1,v1
40001d9c:	ac640000 	sw	a0,0(v1)
40001da0:	8fbf0024 	lw	ra,36(sp)
40001da4:	8fb40020 	lw	s4,32(sp)
40001da8:	8fb3001c 	lw	s3,28(sp)
40001dac:	8fb20018 	lw	s2,24(sp)
40001db0:	8fb10014 	lw	s1,20(sp)
40001db4:	8fb00010 	lw	s0,16(sp)
40001db8:	03e00008 	jr	ra
40001dbc:	27bd0028 	addiu	sp,sp,40

40001dc0 <run_queue_next>:
40001dc0:	27bdffe0 	addiu	sp,sp,-32
40001dc4:	afb00014 	sw	s0,20(sp)
40001dc8:	3c104008 	lui	s0,0x4008
40001dcc:	8e04f158 	lw	a0,-3752(s0)
40001dd0:	afb10018 	sw	s1,24(sp)
40001dd4:	afbf001c 	sw	ra,28(sp)
40001dd8:	0c00070d 	jal	40001c34 <hf_queue_remhead>
40001ddc:	3c114008 	lui	s1,0x4008
40001de0:	1040000f 	beqz	v0,40001e20 <run_queue_next+0x60>
40001de4:	ae22f144 	sw	v0,-3772(s1)
40001de8:	8e04f158 	lw	a0,-3752(s0)
40001dec:	0c0006eb 	jal	40001bac <hf_queue_addtail>
40001df0:	00402821 	move	a1,v0
40001df4:	14400005 	bnez	v0,40001e0c <run_queue_next+0x4c>
40001df8:	8fbf001c 	lw	ra,28(sp)
40001dfc:	8fb10018 	lw	s1,24(sp)
40001e00:	8fb00014 	lw	s0,20(sp)
40001e04:	03e00008 	jr	ra
40001e08:	27bd0020 	addiu	sp,sp,32
40001e0c:	8fb10018 	lw	s1,24(sp)
40001e10:	8fb00014 	lw	s0,20(sp)
40001e14:	24040009 	li	a0,9
40001e18:	0800064a 	j	40001928 <panic>
40001e1c:	27bd0020 	addiu	sp,sp,32
40001e20:	0c00064a 	jal	40001928 <panic>
40001e24:	24040005 	li	a0,5
40001e28:	0800077a 	j	40001de8 <run_queue_next+0x28>
40001e2c:	8e22f144 	lw	v0,-3772(s1)

40001e30 <dispatch_isr>:
40001e30:	27bdffb8 	addiu	sp,sp,-72
40001e34:	afbf0044 	sw	ra,68(sp)
40001e38:	afb70040 	sw	s7,64(sp)
40001e3c:	afb6003c 	sw	s6,60(sp)
40001e40:	afb50038 	sw	s5,56(sp)
40001e44:	afb40034 	sw	s4,52(sp)
40001e48:	afb30030 	sw	s3,48(sp)
40001e4c:	afb2002c 	sw	s2,44(sp)
40001e50:	afb10028 	sw	s1,40(sp)
40001e54:	0c000154 	jal	40000550 <_read_us>
40001e58:	afb00024 	sw	s0,36(sp)
40001e5c:	3c044000 	lui	a0,0x4000
40001e60:	00602821 	move	a1,v1
40001e64:	0c0002a3 	jal	40000a8c <dprintf>
40001e68:	24843830 	addiu	a0,a0,14384
40001e6c:	0c000178 	jal	400005e0 <_timer_reset>
40001e70:	00000000 	nop
40001e74:	3c024008 	lui	v0,0x4008
40001e78:	9442f160 	lhu	v0,-3744(v0)
40001e7c:	1440000c 	bnez	v0,40001eb0 <dispatch_isr+0x80>
40001e80:	3c144008 	lui	s4,0x4008
40001e84:	8fbf0044 	lw	ra,68(sp)
40001e88:	8fb70040 	lw	s7,64(sp)
40001e8c:	8fb6003c 	lw	s6,60(sp)
40001e90:	8fb50038 	lw	s5,56(sp)
40001e94:	8fb40034 	lw	s4,52(sp)
40001e98:	8fb30030 	lw	s3,48(sp)
40001e9c:	8fb2002c 	lw	s2,44(sp)
40001ea0:	8fb10028 	lw	s1,40(sp)
40001ea4:	8fb00024 	lw	s0,36(sp)
40001ea8:	03e00008 	jr	ra
40001eac:	27bd0048 	addiu	sp,sp,72
40001eb0:	9683f140 	lhu	v1,-3776(s4)
40001eb4:	3c104008 	lui	s0,0x4008
40001eb8:	000320c0 	sll	a0,v1,0x3
40001ebc:	00031140 	sll	v0,v1,0x5
40001ec0:	00821021 	addu	v0,a0,v0
40001ec4:	00431823 	subu	v1,v0,v1
40001ec8:	3c024000 	lui	v0,0x4000
40001ecc:	00031880 	sll	v1,v1,0x2
40001ed0:	24423dbc 	addiu	v0,v0,15804
40001ed4:	00431021 	addu	v0,v0,v1
40001ed8:	2444003c 	addiu	a0,v0,60
40001edc:	0c000088 	jal	40000220 <_context_save>
40001ee0:	ae02f144 	sw	v0,-3772(s0)
40001ee4:	1440ffe7 	bnez	v0,40001e84 <dispatch_isr+0x54>
40001ee8:	8e02f144 	lw	v0,-3772(s0)
40001eec:	24030002 	li	v1,2
40001ef0:	90440016 	lbu	a0,22(v0)
40001ef4:	10830060 	beq	a0,v1,40002078 <dispatch_isr+0x248>
40001ef8:	24030001 	li	v1,1
40001efc:	8c420090 	lw	v0,144(v0)
40001f00:	8c430000 	lw	v1,0(v0)
40001f04:	3c02b00b 	lui	v0,0xb00b
40001f08:	3442b00b 	ori	v0,v0,0xb00b
40001f0c:	10620004 	beq	v1,v0,40001f20 <dispatch_isr+0xf0>
40001f10:	3c024008 	lui	v0,0x4008
40001f14:	0c00064a 	jal	40001928 <panic>
40001f18:	24040002 	li	a0,2
40001f1c:	3c024008 	lui	v0,0x4008
40001f20:	9442f150 	lhu	v0,-3760(v0)
40001f24:	10400049 	beqz	v0,4000204c <dispatch_isr+0x21c>
40001f28:	24040003 	li	a0,3
40001f2c:	3c124008 	lui	s2,0x4008
40001f30:	0c0006e9 	jal	40001ba4 <hf_queue_count>
40001f34:	8e44f164 	lw	a0,-3740(s2)
40001f38:	18400025 	blez	v0,40001fd0 <dispatch_isr+0x1a0>
40001f3c:	00409821 	move	s3,v0
40001f40:	00008821 	move	s1,zero
40001f44:	3c164008 	lui	s6,0x4008
40001f48:	3c154008 	lui	s5,0x4008
40001f4c:	080007e3 	j	40001f8c <dispatch_isr+0x15c>
40001f50:	3c174008 	lui	s7,0x4008
40001f54:	94430030 	lhu	v1,48(v0)
40001f58:	14600051 	bnez	v1,400020a0 <dispatch_isr+0x270>
40001f5c:	8ee4f15c 	lw	a0,-3748(s7)
40001f60:	94430032 	lhu	v1,50(v0)
40001f64:	10600046 	beqz	v1,40002080 <dispatch_isr+0x250>
40001f68:	8ec4f158 	lw	a0,-3752(s6)
40001f6c:	8ea4f14c 	lw	a0,-3764(s5)
40001f70:	0c0006eb 	jal	40001bac <hf_queue_addtail>
40001f74:	00402821 	move	a1,v0
40001f78:	14400051 	bnez	v0,400020c0 <dispatch_isr+0x290>
40001f7c:	00000000 	nop
40001f80:	26310001 	addiu	s1,s1,1
40001f84:	12330012 	beq	s1,s3,40001fd0 <dispatch_isr+0x1a0>
40001f88:	00000000 	nop
40001f8c:	0c00070d 	jal	40001c34 <hf_queue_remhead>
40001f90:	8e44f164 	lw	a0,-3740(s2)
40001f94:	1040004e 	beqz	v0,400020d0 <dispatch_isr+0x2a0>
40001f98:	00000000 	nop
40001f9c:	8c43001c 	lw	v1,28(v0)
40001fa0:	2463ffff 	addiu	v1,v1,-1
40001fa4:	1060ffeb 	beqz	v1,40001f54 <dispatch_isr+0x124>
40001fa8:	ac43001c 	sw	v1,28(v0)
40001fac:	8e44f164 	lw	a0,-3740(s2)
40001fb0:	0c0006eb 	jal	40001bac <hf_queue_addtail>
40001fb4:	00402821 	move	a1,v0
40001fb8:	1040fff1 	beqz	v0,40001f80 <dispatch_isr+0x150>
40001fbc:	2404000a 	li	a0,10
40001fc0:	0c00064a 	jal	40001928 <panic>
40001fc4:	26310001 	addiu	s1,s1,1
40001fc8:	1633fff0 	bne	s1,s3,40001f8c <dispatch_isr+0x15c>
40001fcc:	00000000 	nop
40001fd0:	3c114008 	lui	s1,0x4008
40001fd4:	8e22f124 	lw	v0,-3804(s1)
40001fd8:	3c124008 	lui	s2,0x4008
40001fdc:	0040f809 	jalr	v0
40001fe0:	2636f124 	addiu	s6,s1,-3804
40001fe4:	3055ffff 	andi	s5,v0,0xffff
40001fe8:	12a0003e 	beqz	s5,400020e4 <dispatch_isr+0x2b4>
40001fec:	a695f140 	sh	s5,-3776(s4)
40001ff0:	8e02f144 	lw	v0,-3772(s0)
40001ff4:	8ec3000c 	lw	v1,12(s6)
40001ff8:	24040002 	li	a0,2
40001ffc:	94530030 	lhu	s3,48(v0)
40002000:	94520032 	lhu	s2,50(v0)
40002004:	24630001 	addiu	v1,v1,1
40002008:	94510034 	lhu	s1,52(v0)
4000200c:	a0440016 	sb	a0,22(v0)
40002010:	0c000154 	jal	40000550 <_read_us>
40002014:	aec3000c 	sw	v1,12(s6)
40002018:	3c044000 	lui	a0,0x4000
4000201c:	24843840 	addiu	a0,a0,14400
40002020:	02a02821 	move	a1,s5
40002024:	02603021 	move	a2,s3
40002028:	02403821 	move	a3,s2
4000202c:	afa30014 	sw	v1,20(sp)
40002030:	0c0002a3 	jal	40000a8c <dprintf>
40002034:	afb10010 	sw	s1,16(sp)
40002038:	8e04f144 	lw	a0,-3772(s0)
4000203c:	24050001 	li	a1,1
40002040:	0c000097 	jal	4000025c <_context_restore>
40002044:	2484003c 	addiu	a0,a0,60
40002048:	240400ff 	li	a0,255
4000204c:	8fbf0044 	lw	ra,68(sp)
40002050:	8fb70040 	lw	s7,64(sp)
40002054:	8fb6003c 	lw	s6,60(sp)
40002058:	8fb50038 	lw	s5,56(sp)
4000205c:	8fb40034 	lw	s4,52(sp)
40002060:	8fb30030 	lw	s3,48(sp)
40002064:	8fb2002c 	lw	s2,44(sp)
40002068:	8fb10028 	lw	s1,40(sp)
4000206c:	8fb00024 	lw	s0,36(sp)
40002070:	0800064a 	j	40001928 <panic>
40002074:	27bd0048 	addiu	sp,sp,72
40002078:	080007bf 	j	40001efc <dispatch_isr+0xcc>
4000207c:	a0430016 	sb	v1,22(v0)
40002080:	0c0006eb 	jal	40001bac <hf_queue_addtail>
40002084:	00402821 	move	a1,v0
40002088:	1040ffbd 	beqz	v0,40001f80 <dispatch_isr+0x150>
4000208c:	00000000 	nop
40002090:	0c00064a 	jal	40001928 <panic>
40002094:	24040009 	li	a0,9
40002098:	080007e1 	j	40001f84 <dispatch_isr+0x154>
4000209c:	26310001 	addiu	s1,s1,1
400020a0:	0c0006eb 	jal	40001bac <hf_queue_addtail>
400020a4:	00402821 	move	a1,v0
400020a8:	1040ffb5 	beqz	v0,40001f80 <dispatch_isr+0x150>
400020ac:	00000000 	nop
400020b0:	0c00064a 	jal	40001928 <panic>
400020b4:	2404000b 	li	a0,11
400020b8:	080007e1 	j	40001f84 <dispatch_isr+0x154>
400020bc:	26310001 	addiu	s1,s1,1
400020c0:	0c00064a 	jal	40001928 <panic>
400020c4:	24040011 	li	a0,17
400020c8:	080007e1 	j	40001f84 <dispatch_isr+0x154>
400020cc:	26310001 	addiu	s1,s1,1
400020d0:	24040007 	li	a0,7
400020d4:	0c00064a 	jal	40001928 <panic>
400020d8:	afa20018 	sw	v0,24(sp)
400020dc:	080007e7 	j	40001f9c <dispatch_isr+0x16c>
400020e0:	8fa20018 	lw	v0,24(sp)
400020e4:	8ec20018 	lw	v0,24(s6)
400020e8:	0040f809 	jalr	v0
400020ec:	00000000 	nop
400020f0:	3055ffff 	andi	s5,v0,0xffff
400020f4:	16a0ffbe 	bnez	s5,40001ff0 <dispatch_isr+0x1c0>
400020f8:	a655f140 	sh	s5,-3776(s2)
400020fc:	8ec20004 	lw	v0,4(s6)
40002100:	0040f809 	jalr	v0
40002104:	00000000 	nop
40002108:	3055ffff 	andi	s5,v0,0xffff
4000210c:	080007fc 	j	40001ff0 <dispatch_isr+0x1c0>
40002110:	a655f140 	sh	s5,-3776(s2)

40002114 <sched_aperiodic_rr>:
40002114:	27bdffd8 	addiu	sp,sp,-40
40002118:	afb00014 	sw	s0,20(sp)
4000211c:	3c104008 	lui	s0,0x4008
40002120:	afb30020 	sw	s3,32(sp)
40002124:	afb2001c 	sw	s2,28(sp)
40002128:	afb10018 	sw	s1,24(sp)
4000212c:	afbf0024 	sw	ra,36(sp)
40002130:	02009021 	move	s2,s0
40002134:	3c114008 	lui	s1,0x4008
40002138:	08000855 	j	40002154 <sched_aperiodic_rr+0x40>
4000213c:	24130003 	li	s3,3
40002140:	94430036 	lhu	v1,54(v0)
40002144:	14600016 	bnez	v1,400021a0 <sched_aperiodic_rr+0x8c>
40002148:	00000000 	nop
4000214c:	0c000adf 	jal	40002b7c <hf_kill>
40002150:	94440000 	lhu	a0,0(v0)
40002154:	0c0006e9 	jal	40001ba4 <hf_queue_count>
40002158:	8e04f14c 	lw	a0,-3764(s0)
4000215c:	10400010 	beqz	v0,400021a0 <sched_aperiodic_rr+0x8c>
40002160:	00000000 	nop
40002164:	0c00070d 	jal	40001c34 <hf_queue_remhead>
40002168:	8e44f14c 	lw	a0,-3764(s2)
4000216c:	10400020 	beqz	v0,400021f0 <sched_aperiodic_rr+0xdc>
40002170:	ae22f144 	sw	v0,-3772(s1)
40002174:	8e04f14c 	lw	a0,-3764(s0)
40002178:	0c0006eb 	jal	40001bac <hf_queue_addtail>
4000217c:	00402821 	move	a1,v0
40002180:	1040ffef 	beqz	v0,40002140 <sched_aperiodic_rr+0x2c>
40002184:	8e22f144 	lw	v0,-3772(s1)
40002188:	0c00064a 	jal	40001928 <panic>
4000218c:	24040011 	li	a0,17
40002190:	8e22f144 	lw	v0,-3772(s1)
40002194:	94430036 	lhu	v1,54(v0)
40002198:	1060ffec 	beqz	v1,4000214c <sched_aperiodic_rr+0x38>
4000219c:	00000000 	nop
400021a0:	0c0006e9 	jal	40001ba4 <hf_queue_count>
400021a4:	8e04f14c 	lw	a0,-3764(s0)
400021a8:	10400016 	beqz	v0,40002204 <sched_aperiodic_rr+0xf0>
400021ac:	8e23f144 	lw	v1,-3772(s1)
400021b0:	90620016 	lbu	v0,22(v1)
400021b4:	1053ffe7 	beq	v0,s3,40002154 <sched_aperiodic_rr+0x40>
400021b8:	8fbf0024 	lw	ra,36(sp)
400021bc:	8c650024 	lw	a1,36(v1)
400021c0:	94640036 	lhu	a0,54(v1)
400021c4:	24a50001 	addiu	a1,a1,1
400021c8:	2484ffff 	addiu	a0,a0,-1
400021cc:	94620000 	lhu	v0,0(v1)
400021d0:	8fb30020 	lw	s3,32(sp)
400021d4:	8fb2001c 	lw	s2,28(sp)
400021d8:	8fb10018 	lw	s1,24(sp)
400021dc:	8fb00014 	lw	s0,20(sp)
400021e0:	ac650024 	sw	a1,36(v1)
400021e4:	a4640036 	sh	a0,54(v1)
400021e8:	03e00008 	jr	ra
400021ec:	27bd0028 	addiu	sp,sp,40
400021f0:	0c00064a 	jal	40001928 <panic>
400021f4:	24040010 	li	a0,16
400021f8:	3c024008 	lui	v0,0x4008
400021fc:	0800085d 	j	40002174 <sched_aperiodic_rr+0x60>
40002200:	8c42f144 	lw	v0,-3772(v0)
40002204:	8fbf0024 	lw	ra,36(sp)
40002208:	00001021 	move	v0,zero
4000220c:	8fb30020 	lw	s3,32(sp)
40002210:	8fb2001c 	lw	s2,28(sp)
40002214:	8fb10018 	lw	s1,24(sp)
40002218:	8fb00014 	lw	s0,20(sp)
4000221c:	03e00008 	jr	ra
40002220:	27bd0028 	addiu	sp,sp,40

40002224 <sched_priorityrr>:
40002224:	3c024008 	lui	v0,0x4008
40002228:	8c44f158 	lw	a0,-3752(v0)
4000222c:	27bdffd0 	addiu	sp,sp,-48
40002230:	afb2001c 	sw	s2,28(sp)
40002234:	afbf002c 	sw	ra,44(sp)
40002238:	afb50028 	sw	s5,40(sp)
4000223c:	afb40024 	sw	s4,36(sp)
40002240:	afb30020 	sw	s3,32(sp)
40002244:	afb10018 	sw	s1,24(sp)
40002248:	0c0006e9 	jal	40001ba4 <hf_queue_count>
4000224c:	afb00014 	sw	s0,20(sp)
40002250:	10400048 	beqz	v0,40002374 <sched_priorityrr+0x150>
40002254:	00409021 	move	s2,v0
40002258:	0c000770 	jal	40001dc0 <run_queue_next>
4000225c:	00000000 	nop
40002260:	1a400048 	blez	s2,40002384 <sched_priorityrr+0x160>
40002264:	241400ff 	li	s4,255
40002268:	00008021 	move	s0,zero
4000226c:	00008821 	move	s1,zero
40002270:	3c134008 	lui	s3,0x4008
40002274:	24150003 	li	s5,3
40002278:	0c000770 	jal	40001dc0 <run_queue_next>
4000227c:	26310001 	addiu	s1,s1,1
40002280:	8e63f144 	lw	v1,-3772(s3)
40002284:	90640019 	lbu	a0,25(v1)
40002288:	10800004 	beqz	a0,4000229c <sched_priorityrr+0x78>
4000228c:	00000000 	nop
40002290:	90620016 	lbu	v0,22(v1)
40002294:	14550028 	bne	v0,s5,40002338 <sched_priorityrr+0x114>
40002298:	00000000 	nop
4000229c:	90620018 	lbu	v0,24(v1)
400022a0:	0054202b 	sltu	a0,v0,s4
400022a4:	10800006 	beqz	a0,400022c0 <sched_priorityrr+0x9c>
400022a8:	00000000 	nop
400022ac:	90640016 	lbu	a0,22(v1)
400022b0:	10950003 	beq	a0,s5,400022c0 <sched_priorityrr+0x9c>
400022b4:	00000000 	nop
400022b8:	00608021 	move	s0,v1
400022bc:	0040a021 	move	s4,v0
400022c0:	1632ffed 	bne	s1,s2,40002278 <sched_priorityrr+0x54>
400022c4:	00000000 	nop
400022c8:	00008821 	move	s1,zero
400022cc:	0c000770 	jal	40001dc0 <run_queue_next>
400022d0:	26310001 	addiu	s1,s1,1
400022d4:	8e63f144 	lw	v1,-3772(s3)
400022d8:	12030005 	beq	s0,v1,400022f0 <sched_priorityrr+0xcc>
400022dc:	00000000 	nop
400022e0:	90640018 	lbu	a0,24(v1)
400022e4:	92020018 	lbu	v0,24(s0)
400022e8:	00821023 	subu	v0,a0,v0
400022ec:	a0620018 	sb	v0,24(v1)
400022f0:	1632fff6 	bne	s1,s2,400022cc <sched_priorityrr+0xa8>
400022f4:	00000000 	nop
400022f8:	92020017 	lbu	v0,23(s0)
400022fc:	8e030028 	lw	v1,40(s0)
40002300:	ae70f144 	sw	s0,-3772(s3)
40002304:	a2020018 	sb	v0,24(s0)
40002308:	8fbf002c 	lw	ra,44(sp)
4000230c:	24630001 	addiu	v1,v1,1
40002310:	96020000 	lhu	v0,0(s0)
40002314:	ae030028 	sw	v1,40(s0)
40002318:	8fb50028 	lw	s5,40(sp)
4000231c:	8fb40024 	lw	s4,36(sp)
40002320:	8fb30020 	lw	s3,32(sp)
40002324:	8fb2001c 	lw	s2,28(sp)
40002328:	8fb10018 	lw	s1,24(sp)
4000232c:	8fb00014 	lw	s0,20(sp)
40002330:	03e00008 	jr	ra
40002334:	27bd0030 	addiu	sp,sp,48
40002338:	00608021 	move	s0,v1
4000233c:	a0600019 	sb	zero,25(v1)
40002340:	8e030028 	lw	v1,40(s0)
40002344:	8fbf002c 	lw	ra,44(sp)
40002348:	96020000 	lhu	v0,0(s0)
4000234c:	24630001 	addiu	v1,v1,1
40002350:	ae030028 	sw	v1,40(s0)
40002354:	8fb50028 	lw	s5,40(sp)
40002358:	8fb40024 	lw	s4,36(sp)
4000235c:	8fb30020 	lw	s3,32(sp)
40002360:	8fb2001c 	lw	s2,28(sp)
40002364:	8fb10018 	lw	s1,24(sp)
40002368:	8fb00014 	lw	s0,20(sp)
4000236c:	03e00008 	jr	ra
40002370:	27bd0030 	addiu	sp,sp,48
40002374:	0c00064a 	jal	40001928 <panic>
40002378:	24040005 	li	a0,5
4000237c:	0c000770 	jal	40001dc0 <run_queue_next>
40002380:	00000000 	nop
40002384:	00008021 	move	s0,zero
40002388:	080008be 	j	400022f8 <sched_priorityrr+0xd4>
4000238c:	3c134008 	lui	s3,0x4008

40002390 <sched_rma>:
40002390:	27bdffc8 	addiu	sp,sp,-56
40002394:	afb10018 	sw	s1,24(sp)
40002398:	3c114008 	lui	s1,0x4008
4000239c:	8e24f15c 	lw	a0,-3748(s1)
400023a0:	afb30020 	sw	s3,32(sp)
400023a4:	afbf0034 	sw	ra,52(sp)
400023a8:	afb70030 	sw	s7,48(sp)
400023ac:	afb6002c 	sw	s6,44(sp)
400023b0:	afb50028 	sw	s5,40(sp)
400023b4:	afb40024 	sw	s4,36(sp)
400023b8:	afb2001c 	sw	s2,28(sp)
400023bc:	0c0006e9 	jal	40001ba4 <hf_queue_count>
400023c0:	afb00014 	sw	s0,20(sp)
400023c4:	00409821 	move	s3,v0
400023c8:	12600059 	beqz	s3,40002530 <sched_rma+0x1a0>
400023cc:	00001021 	move	v0,zero
400023d0:	2676ffff 	addiu	s6,s3,-1
400023d4:	00009021 	move	s2,zero
400023d8:	0256102a 	slt	v0,s2,s6
400023dc:	10400023 	beqz	v0,4000246c <sched_rma+0xdc>
400023e0:	0220a821 	move	s5,s1
400023e4:	26540001 	addiu	s4,s2,1
400023e8:	0293102a 	slt	v0,s4,s3
400023ec:	1040001b 	beqz	v0,4000245c <sched_rma+0xcc>
400023f0:	00000000 	nop
400023f4:	08000902 	j	40002408 <sched_rma+0x78>
400023f8:	02808021 	move	s0,s4
400023fc:	26100001 	addiu	s0,s0,1
40002400:	12130016 	beq	s0,s3,4000245c <sched_rma+0xcc>
40002404:	00000000 	nop
40002408:	8e24f15c 	lw	a0,-3748(s1)
4000240c:	0c000728 	jal	40001ca0 <hf_queue_get>
40002410:	02402821 	move	a1,s2
40002414:	8e24f15c 	lw	a0,-3748(s1)
40002418:	02002821 	move	a1,s0
4000241c:	0c000728 	jal	40001ca0 <hf_queue_get>
40002420:	0040b821 	move	s7,v0
40002424:	94420030 	lhu	v0,48(v0)
40002428:	96e30030 	lhu	v1,48(s7)
4000242c:	0043102b 	sltu	v0,v0,v1
40002430:	1040fff2 	beqz	v0,400023fc <sched_rma+0x6c>
40002434:	8ea4f15c 	lw	a0,-3748(s5)
40002438:	02003021 	move	a2,s0
4000243c:	0c000741 	jal	40001d04 <hf_queue_swap>
40002440:	02402821 	move	a1,s2
40002444:	1040ffed 	beqz	v0,400023fc <sched_rma+0x6c>
40002448:	2404000c 	li	a0,12
4000244c:	0c00064a 	jal	40001928 <panic>
40002450:	26100001 	addiu	s0,s0,1
40002454:	1613ffed 	bne	s0,s3,4000240c <sched_rma+0x7c>
40002458:	8e24f15c 	lw	a0,-3748(s1)
4000245c:	02809021 	move	s2,s4
40002460:	0296102a 	slt	v0,s4,s6
40002464:	1440ffe0 	bnez	v0,400023e8 <sched_rma+0x58>
40002468:	26540001 	addiu	s4,s2,1
4000246c:	1a60002c 	blez	s3,40002520 <sched_rma+0x190>
40002470:	3c124008 	lui	s2,0x4008
40002474:	0000a821 	move	s5,zero
40002478:	00008021 	move	s0,zero
4000247c:	0240b021 	move	s6,s2
40002480:	24140003 	li	s4,3
40002484:	0c00070d 	jal	40001c34 <hf_queue_remhead>
40002488:	8e24f15c 	lw	a0,-3748(s1)
4000248c:	1040004e 	beqz	v0,400025c8 <sched_rma+0x238>
40002490:	ae42f144 	sw	v0,-3772(s2)
40002494:	8e24f15c 	lw	a0,-3748(s1)
40002498:	0c0006eb 	jal	40001bac <hf_queue_addtail>
4000249c:	00402821 	move	a1,v0
400024a0:	1440002e 	bnez	v0,4000255c <sched_rma+0x1cc>
400024a4:	00000000 	nop
400024a8:	8e42f144 	lw	v0,-3772(s2)
400024ac:	90430016 	lbu	v1,22(v0)
400024b0:	10740008 	beq	v1,s4,400024d4 <sched_rma+0x144>
400024b4:	00000000 	nop
400024b8:	94430036 	lhu	v1,54(v0)
400024bc:	10600005 	beqz	v1,400024d4 <sched_rma+0x144>
400024c0:	00000000 	nop
400024c4:	16a00003 	bnez	s5,400024d4 <sched_rma+0x144>
400024c8:	2463ffff 	addiu	v1,v1,-1
400024cc:	94550000 	lhu	s5,0(v0)
400024d0:	a4430036 	sh	v1,54(v0)
400024d4:	94430038 	lhu	v1,56(v0)
400024d8:	2463ffff 	addiu	v1,v1,-1
400024dc:	3063ffff 	andi	v1,v1,0xffff
400024e0:	1460000a 	bnez	v1,4000250c <sched_rma+0x17c>
400024e4:	a4430038 	sh	v1,56(v0)
400024e8:	94440030 	lhu	a0,48(v0)
400024ec:	94430036 	lhu	v1,54(v0)
400024f0:	10600004 	beqz	v1,40002504 <sched_rma+0x174>
400024f4:	a4440038 	sh	a0,56(v0)
400024f8:	8c43002c 	lw	v1,44(v0)
400024fc:	24630001 	addiu	v1,v1,1
40002500:	ac43002c 	sw	v1,44(v0)
40002504:	94430032 	lhu	v1,50(v0)
40002508:	a4430036 	sh	v1,54(v0)
4000250c:	26100001 	addiu	s0,s0,1
40002510:	1613ffdc 	bne	s0,s3,40002484 <sched_rma+0xf4>
40002514:	00000000 	nop
40002518:	16a00014 	bnez	s5,4000256c <sched_rma+0x1dc>
4000251c:	001518c0 	sll	v1,s5,0x3
40002520:	3c024000 	lui	v0,0x4000
40002524:	24423dbc 	addiu	v0,v0,15804
40002528:	ae42f144 	sw	v0,-3772(s2)
4000252c:	00001021 	move	v0,zero
40002530:	8fbf0034 	lw	ra,52(sp)
40002534:	8fb70030 	lw	s7,48(sp)
40002538:	8fb6002c 	lw	s6,44(sp)
4000253c:	8fb50028 	lw	s5,40(sp)
40002540:	8fb40024 	lw	s4,36(sp)
40002544:	8fb30020 	lw	s3,32(sp)
40002548:	8fb2001c 	lw	s2,28(sp)
4000254c:	8fb10018 	lw	s1,24(sp)
40002550:	8fb00014 	lw	s0,20(sp)
40002554:	03e00008 	jr	ra
40002558:	27bd0038 	addiu	sp,sp,56
4000255c:	0c00064a 	jal	40001928 <panic>
40002560:	2404000b 	li	a0,11
40002564:	0800092b 	j	400024ac <sched_rma+0x11c>
40002568:	8e42f144 	lw	v0,-3772(s2)
4000256c:	00151140 	sll	v0,s5,0x5
40002570:	00621021 	addu	v0,v1,v0
40002574:	00551023 	subu	v0,v0,s5
40002578:	3c034000 	lui	v1,0x4000
4000257c:	00021080 	sll	v0,v0,0x2
40002580:	24633dbc 	addiu	v1,v1,15804
40002584:	00621821 	addu	v1,v1,v0
40002588:	8c640020 	lw	a0,32(v1)
4000258c:	8fbf0034 	lw	ra,52(sp)
40002590:	02a01021 	move	v0,s5
40002594:	24840001 	addiu	a0,a0,1
40002598:	ae43f144 	sw	v1,-3772(s2)
4000259c:	8fb70030 	lw	s7,48(sp)
400025a0:	8fb6002c 	lw	s6,44(sp)
400025a4:	8fb50028 	lw	s5,40(sp)
400025a8:	8fb40024 	lw	s4,36(sp)
400025ac:	8fb30020 	lw	s3,32(sp)
400025b0:	8fb2001c 	lw	s2,28(sp)
400025b4:	8fb10018 	lw	s1,24(sp)
400025b8:	8fb00014 	lw	s0,20(sp)
400025bc:	ac640020 	sw	a0,32(v1)
400025c0:	03e00008 	jr	ra
400025c4:	27bd0038 	addiu	sp,sp,56
400025c8:	0c00064a 	jal	40001928 <panic>
400025cc:	24040006 	li	a0,6
400025d0:	08000925 	j	40002494 <sched_rma+0x104>
400025d4:	8ec2f144 	lw	v0,-3772(s6)

400025d8 <hf_selfid>:
400025d8:	27bdffe8 	addiu	sp,sp,-24
400025dc:	afbf0014 	sw	ra,20(sp)
400025e0:	0c000154 	jal	40000550 <_read_us>
400025e4:	00000000 	nop
400025e8:	3c044000 	lui	a0,0x4000
400025ec:	00602821 	move	a1,v1
400025f0:	0c0002a3 	jal	40000a8c <dprintf>
400025f4:	24843870 	addiu	a0,a0,14448
400025f8:	3c024008 	lui	v0,0x4008
400025fc:	8c42f144 	lw	v0,-3772(v0)
40002600:	8fbf0014 	lw	ra,20(sp)
40002604:	27bd0018 	addiu	sp,sp,24
40002608:	03e00008 	jr	ra
4000260c:	94420000 	lhu	v0,0(v0)

40002610 <hf_spawn>:
40002610:	27bdffa0 	addiu	sp,sp,-96
40002614:	afb60050 	sw	s6,80(sp)
40002618:	afb20040 	sw	s2,64(sp)
4000261c:	afb1003c 	sw	s1,60(sp)
40002620:	afb00038 	sw	s0,56(sp)
40002624:	30b1ffff 	andi	s1,a1,0xffff
40002628:	00809021 	move	s2,a0
4000262c:	afbf005c 	sw	ra,92(sp)
40002630:	afbe0058 	sw	s8,88(sp)
40002634:	afb70054 	sw	s7,84(sp)
40002638:	afb5004c 	sw	s5,76(sp)
4000263c:	afb40048 	sw	s4,72(sp)
40002640:	afb30044 	sw	s3,68(sp)
40002644:	30d0ffff 	andi	s0,a2,0xffff
40002648:	30f6ffff 	andi	s6,a3,0xffff
4000264c:	afa00028 	sw	zero,40(sp)
40002650:	0c000154 	jal	40000550 <_read_us>
40002654:	00000000 	nop
40002658:	3c044000 	lui	a0,0x4000
4000265c:	00602821 	move	a1,v1
40002660:	0c0002a3 	jal	40000a8c <dprintf>
40002664:	248438f4 	addiu	a0,a0,14580
40002668:	12200006 	beqz	s1,40002684 <hf_spawn+0x74>
4000266c:	0230182b 	sltu	v1,s1,s0
40002670:	14600089 	bnez	v1,40002898 <hf_spawn+0x288>
40002674:	2402ff9b 	li	v0,-101
40002678:	02d0182b 	sltu	v1,s6,s0
4000267c:	14600087 	bnez	v1,4000289c <hf_spawn+0x28c>
40002680:	8fbf005c 	lw	ra,92(sp)
40002684:	0c000082 	jal	40000208 <_interrupt_set>
40002688:	00002021 	move	a0,zero
4000268c:	afa2002c 	sw	v0,44(sp)
40002690:	3c134000 	lui	s3,0x4000
40002694:	8fa20028 	lw	v0,40(sp)
40002698:	080009b0 	j	400026c0 <hf_spawn+0xb0>
4000269c:	26733dbc 	addiu	s3,s3,15804
400026a0:	8fa20028 	lw	v0,40(sp)
400026a4:	2c42001e 	sltiu	v0,v0,30
400026a8:	1040000e 	beqz	v0,400026e4 <hf_spawn+0xd4>
400026ac:	00000000 	nop
400026b0:	8fa20028 	lw	v0,40(sp)
400026b4:	24420001 	addiu	v0,v0,1
400026b8:	afa20028 	sw	v0,40(sp)
400026bc:	8fa20028 	lw	v0,40(sp)
400026c0:	000220c0 	sll	a0,v0,0x3
400026c4:	00021940 	sll	v1,v0,0x5
400026c8:	00831821 	addu	v1,a0,v1
400026cc:	00621023 	subu	v0,v1,v0
400026d0:	00021080 	sll	v0,v0,0x2
400026d4:	02621021 	addu	v0,s3,v0
400026d8:	8c42008c 	lw	v0,140(v0)
400026dc:	1440fff0 	bnez	v0,400026a0 <hf_spawn+0x90>
400026e0:	00000000 	nop
400026e4:	8fa30028 	lw	v1,40(sp)
400026e8:	2402001e 	li	v0,30
400026ec:	106200aa 	beq	v1,v0,40002998 <hf_spawn+0x388>
400026f0:	00000000 	nop
400026f4:	8fa20028 	lw	v0,40(sp)
400026f8:	3c174008 	lui	s7,0x4008
400026fc:	96e7f150 	lhu	a3,-3760(s7)
40002700:	000220c0 	sll	a0,v0,0x3
40002704:	00021940 	sll	v1,v0,0x5
40002708:	00831821 	addu	v1,a0,v1
4000270c:	00621023 	subu	v0,v1,v0
40002710:	8fa30028 	lw	v1,40(sp)
40002714:	8fa50070 	lw	a1,112(sp)
40002718:	00021080 	sll	v0,v0,0x2
4000271c:	02621021 	addu	v0,s3,v0
40002720:	3c144008 	lui	s4,0x4008
40002724:	24e70001 	addiu	a3,a3,1
40002728:	24060014 	li	a2,20
4000272c:	a4430000 	sh	v1,0(v0)
40002730:	24440002 	addiu	a0,v0,2
40002734:	a6e7f150 	sh	a3,-3760(s7)
40002738:	0c0003f8 	jal	40000fe0 <strncpy>
4000273c:	ae82f144 	sw	v0,-3772(s4)
40002740:	8fb50074 	lw	s5,116(sp)
40002744:	8e9ef144 	lw	s8,-3772(s4)
40002748:	24020064 	li	v0,100
4000274c:	26b50003 	addiu	s5,s5,3
40002750:	0015a882 	srl	s5,s5,0x2
40002754:	0015a880 	sll	s5,s5,0x2
40002758:	02a02021 	move	a0,s5
4000275c:	a3c00016 	sb	zero,22(s8)
40002760:	a3c20017 	sb	v0,23(s8)
40002764:	a3c20018 	sb	v0,24(s8)
40002768:	afc0001c 	sw	zero,28(s8)
4000276c:	a7d10030 	sh	s1,48(s8)
40002770:	a7d00032 	sh	s0,50(s8)
40002774:	a7d60034 	sh	s6,52(s8)
40002778:	a7d00036 	sh	s0,54(s8)
4000277c:	a7d60038 	sh	s6,56(s8)
40002780:	afc00020 	sw	zero,32(s8)
40002784:	afc00024 	sw	zero,36(s8)
40002788:	afc00028 	sw	zero,40(s8)
4000278c:	afc0002c 	sw	zero,44(s8)
40002790:	afd2008c 	sw	s2,140(s8)
40002794:	0c0005ce 	jal	40001738 <hf_malloc>
40002798:	afd50094 	sw	s5,148(s8)
4000279c:	8e83f144 	lw	v1,-3772(s4)
400027a0:	afc20090 	sw	v0,144(s8)
400027a4:	8c650090 	lw	a1,144(v1)
400027a8:	94640000 	lhu	a0,0(v1)
400027ac:	24a5fffc 	addiu	a1,a1,-4
400027b0:	0c00012d 	jal	400004b4 <_set_task_sp>
400027b4:	00b52821 	addu	a1,a1,s5
400027b8:	8e82f144 	lw	v0,-3772(s4)
400027bc:	8c45008c 	lw	a1,140(v0)
400027c0:	0c000143 	jal	4000050c <_set_task_tp>
400027c4:	94440000 	lhu	a0,0(v0)
400027c8:	8e85f144 	lw	a1,-3772(s4)
400027cc:	8ca20090 	lw	v0,144(a1)
400027d0:	1040005a 	beqz	v0,4000293c <hf_spawn+0x32c>
400027d4:	3c03b00b 	lui	v1,0xb00b
400027d8:	94a60000 	lhu	a2,0(a1)
400027dc:	3463b00b 	ori	v1,v1,0xb00b
400027e0:	94be0030 	lhu	s8,48(a1)
400027e4:	94b70032 	lhu	s7,50(a1)
400027e8:	94b60034 	lhu	s6,52(a1)
400027ec:	8cb2008c 	lw	s2,140(a1)
400027f0:	00c02021 	move	a0,a2
400027f4:	ac430000 	sw	v1,0(v0)
400027f8:	afa50030 	sw	a1,48(sp)
400027fc:	0c000138 	jal	400004e0 <_get_task_sp>
40002800:	afa60034 	sw	a2,52(sp)
40002804:	8fa50030 	lw	a1,48(sp)
40002808:	8fa60034 	lw	a2,52(sp)
4000280c:	3c044000 	lui	a0,0x4000
40002810:	2484392c 	addiu	a0,a0,14636
40002814:	24a50002 	addiu	a1,a1,2
40002818:	03c03821 	move	a3,s8
4000281c:	afb70010 	sw	s7,16(sp)
40002820:	afb60014 	sw	s6,20(sp)
40002824:	afb20018 	sw	s2,24(sp)
40002828:	afa2001c 	sw	v0,28(sp)
4000282c:	0c000226 	jal	40000898 <kprintf>
40002830:	afb50020 	sw	s5,32(sp)
40002834:	16200031 	bnez	s1,400028fc <hf_spawn+0x2ec>
40002838:	3c044000 	lui	a0,0x4000
4000283c:	12000022 	beqz	s0,400028c8 <hf_spawn+0x2b8>
40002840:	00000000 	nop
40002844:	3c044000 	lui	a0,0x4000
40002848:	0c000435 	jal	400010d4 <printf>
4000284c:	24843998 	addiu	a0,a0,14744
40002850:	3c024008 	lui	v0,0x4008
40002854:	8c44f14c 	lw	a0,-3764(v0)
40002858:	0c0006eb 	jal	40001bac <hf_queue_addtail>
4000285c:	8e85f144 	lw	a1,-3772(s4)
40002860:	14400032 	bnez	v0,4000292c <hf_spawn+0x31c>
40002864:	00000000 	nop
40002868:	3c024008 	lui	v0,0x4008
4000286c:	9442f140 	lhu	v0,-3776(v0)
40002870:	8fa4002c 	lw	a0,44(sp)
40002874:	000228c0 	sll	a1,v0,0x3
40002878:	00021940 	sll	v1,v0,0x5
4000287c:	00a31821 	addu	v1,a1,v1
40002880:	00621023 	subu	v0,v1,v0
40002884:	00021080 	sll	v0,v0,0x2
40002888:	02629821 	addu	s3,s3,v0
4000288c:	0c000082 	jal	40000208 <_interrupt_set>
40002890:	ae93f144 	sw	s3,-3772(s4)
40002894:	8fa20028 	lw	v0,40(sp)
40002898:	8fbf005c 	lw	ra,92(sp)
4000289c:	8fbe0058 	lw	s8,88(sp)
400028a0:	8fb70054 	lw	s7,84(sp)
400028a4:	8fb60050 	lw	s6,80(sp)
400028a8:	8fb5004c 	lw	s5,76(sp)
400028ac:	8fb40048 	lw	s4,72(sp)
400028b0:	8fb30044 	lw	s3,68(sp)
400028b4:	8fb20040 	lw	s2,64(sp)
400028b8:	8fb1003c 	lw	s1,60(sp)
400028bc:	8fb00038 	lw	s0,56(sp)
400028c0:	03e00008 	jr	ra
400028c4:	27bd0060 	addiu	sp,sp,96
400028c8:	3c044000 	lui	a0,0x4000
400028cc:	0c000435 	jal	400010d4 <printf>
400028d0:	248439bc 	addiu	a0,a0,14780
400028d4:	3c024008 	lui	v0,0x4008
400028d8:	8c44f158 	lw	a0,-3752(v0)
400028dc:	0c0006eb 	jal	40001bac <hf_queue_addtail>
400028e0:	8e85f144 	lw	a1,-3772(s4)
400028e4:	1040ffe0 	beqz	v0,40002868 <hf_spawn+0x258>
400028e8:	00000000 	nop
400028ec:	0c00064a 	jal	40001928 <panic>
400028f0:	24040009 	li	a0,9
400028f4:	08000a1b 	j	4000286c <hf_spawn+0x25c>
400028f8:	3c024008 	lui	v0,0x4008
400028fc:	0c000435 	jal	400010d4 <printf>
40002900:	24843974 	addiu	a0,a0,14708
40002904:	3c024008 	lui	v0,0x4008
40002908:	8c44f15c 	lw	a0,-3748(v0)
4000290c:	0c0006eb 	jal	40001bac <hf_queue_addtail>
40002910:	8e85f144 	lw	a1,-3772(s4)
40002914:	1040ffd4 	beqz	v0,40002868 <hf_spawn+0x258>
40002918:	00000000 	nop
4000291c:	0c00064a 	jal	40001928 <panic>
40002920:	2404000b 	li	a0,11
40002924:	08000a1b 	j	4000286c <hf_spawn+0x25c>
40002928:	3c024008 	lui	v0,0x4008
4000292c:	0c00064a 	jal	40001928 <panic>
40002930:	24040011 	li	a0,17
40002934:	08000a1b 	j	4000286c <hf_spawn+0x25c>
40002938:	3c024008 	lui	v0,0x4008
4000293c:	96e2f150 	lhu	v0,-3760(s7)
40002940:	3c044000 	lui	a0,0x4000
40002944:	aca0008c 	sw	zero,140(a1)
40002948:	2442ffff 	addiu	v0,v0,-1
4000294c:	248439e0 	addiu	a0,a0,14816
40002950:	0c000226 	jal	40000898 <kprintf>
40002954:	a6e2f150 	sh	v0,-3760(s7)
40002958:	2402ff98 	li	v0,-104
4000295c:	afa20028 	sw	v0,40(sp)
40002960:	3c024008 	lui	v0,0x4008
40002964:	9442f140 	lhu	v0,-3776(v0)
40002968:	8fa4002c 	lw	a0,44(sp)
4000296c:	000228c0 	sll	a1,v0,0x3
40002970:	00021940 	sll	v1,v0,0x5
40002974:	00a31821 	addu	v1,a1,v1
40002978:	00621023 	subu	v0,v1,v0
4000297c:	00021080 	sll	v0,v0,0x2
40002980:	02629821 	addu	s3,s3,v0
40002984:	0c000082 	jal	40000208 <_interrupt_set>
40002988:	ae93f144 	sw	s3,-3772(s4)
4000298c:	8fa20028 	lw	v0,40(sp)
40002990:	08000a27 	j	4000289c <hf_spawn+0x28c>
40002994:	8fbf005c 	lw	ra,92(sp)
40002998:	3c044000 	lui	a0,0x4000
4000299c:	24843904 	addiu	a0,a0,14596
400029a0:	0c000226 	jal	40000898 <kprintf>
400029a4:	2405001e 	li	a1,30
400029a8:	8fa4002c 	lw	a0,44(sp)
400029ac:	0c000082 	jal	40000208 <_interrupt_set>
400029b0:	00000000 	nop
400029b4:	08000a26 	j	40002898 <hf_spawn+0x288>
400029b8:	2402ff99 	li	v0,-103

400029bc <hf_yield>:
400029bc:	27bdffc0 	addiu	sp,sp,-64
400029c0:	00002021 	move	a0,zero
400029c4:	afbf003c 	sw	ra,60(sp)
400029c8:	afb40030 	sw	s4,48(sp)
400029cc:	afb00020 	sw	s0,32(sp)
400029d0:	afb60038 	sw	s6,56(sp)
400029d4:	afb50034 	sw	s5,52(sp)
400029d8:	afb3002c 	sw	s3,44(sp)
400029dc:	afb20028 	sw	s2,40(sp)
400029e0:	0c000082 	jal	40000208 <_interrupt_set>
400029e4:	afb10024 	sw	s1,36(sp)
400029e8:	afa20018 	sw	v0,24(sp)
400029ec:	0c000154 	jal	40000550 <_read_us>
400029f0:	3c144008 	lui	s4,0x4008
400029f4:	3c044000 	lui	a0,0x4000
400029f8:	00602821 	move	a1,v1
400029fc:	0c0002a3 	jal	40000a8c <dprintf>
40002a00:	24843a08 	addiu	a0,a0,14856
40002a04:	9683f140 	lhu	v1,-3776(s4)
40002a08:	3c104008 	lui	s0,0x4008
40002a0c:	000320c0 	sll	a0,v1,0x3
40002a10:	00031140 	sll	v0,v1,0x5
40002a14:	00821021 	addu	v0,a0,v0
40002a18:	00431823 	subu	v1,v0,v1
40002a1c:	3c024000 	lui	v0,0x4000
40002a20:	00031880 	sll	v1,v1,0x2
40002a24:	24423dbc 	addiu	v0,v0,15804
40002a28:	00431021 	addu	v0,v0,v1
40002a2c:	2444003c 	addiu	a0,v0,60
40002a30:	0c000088 	jal	40000220 <_context_save>
40002a34:	ae02f144 	sw	v0,-3772(s0)
40002a38:	14400045 	bnez	v0,40002b50 <hf_yield+0x194>
40002a3c:	8e02f144 	lw	v0,-3772(s0)
40002a40:	24030002 	li	v1,2
40002a44:	90440016 	lbu	a0,22(v0)
40002a48:	1083003f 	beq	a0,v1,40002b48 <hf_yield+0x18c>
40002a4c:	24030001 	li	v1,1
40002a50:	8c420090 	lw	v0,144(v0)
40002a54:	8c430000 	lw	v1,0(v0)
40002a58:	3c02b00b 	lui	v0,0xb00b
40002a5c:	3442b00b 	ori	v0,v0,0xb00b
40002a60:	10620004 	beq	v1,v0,40002a74 <hf_yield+0xb8>
40002a64:	3c024008 	lui	v0,0x4008
40002a68:	0c00064a 	jal	40001928 <panic>
40002a6c:	24040002 	li	a0,2
40002a70:	3c024008 	lui	v0,0x4008
40002a74:	9442f150 	lhu	v0,-3760(v0)
40002a78:	1440000b 	bnez	v0,40002aa8 <hf_yield+0xec>
40002a7c:	24040003 	li	a0,3
40002a80:	8fbf003c 	lw	ra,60(sp)
40002a84:	8fb60038 	lw	s6,56(sp)
40002a88:	8fb50034 	lw	s5,52(sp)
40002a8c:	8fb40030 	lw	s4,48(sp)
40002a90:	8fb3002c 	lw	s3,44(sp)
40002a94:	8fb20028 	lw	s2,40(sp)
40002a98:	8fb10024 	lw	s1,36(sp)
40002a9c:	8fb00020 	lw	s0,32(sp)
40002aa0:	0800064a 	j	40001928 <panic>
40002aa4:	27bd0040 	addiu	sp,sp,64
40002aa8:	3c164008 	lui	s6,0x4008
40002aac:	26d6f124 	addiu	s6,s6,-3804
40002ab0:	8ec20004 	lw	v0,4(s6)
40002ab4:	0040f809 	jalr	v0
40002ab8:	00000000 	nop
40002abc:	8e03f144 	lw	v1,-3772(s0)
40002ac0:	8ec40008 	lw	a0,8(s6)
40002ac4:	3055ffff 	andi	s5,v0,0xffff
40002ac8:	94730030 	lhu	s3,48(v1)
40002acc:	94720032 	lhu	s2,50(v1)
40002ad0:	24020002 	li	v0,2
40002ad4:	24840001 	addiu	a0,a0,1
40002ad8:	94710034 	lhu	s1,52(v1)
40002adc:	a0620016 	sb	v0,22(v1)
40002ae0:	a695f140 	sh	s5,-3776(s4)
40002ae4:	0c000154 	jal	40000550 <_read_us>
40002ae8:	aec40008 	sw	a0,8(s6)
40002aec:	3c044000 	lui	a0,0x4000
40002af0:	02a02821 	move	a1,s5
40002af4:	02603021 	move	a2,s3
40002af8:	02403821 	move	a3,s2
40002afc:	24843840 	addiu	a0,a0,14400
40002b00:	afb10010 	sw	s1,16(sp)
40002b04:	0c0002a3 	jal	40000a8c <dprintf>
40002b08:	afa30014 	sw	v1,20(sp)
40002b0c:	8e04f144 	lw	a0,-3772(s0)
40002b10:	24050001 	li	a1,1
40002b14:	0c000097 	jal	4000025c <_context_restore>
40002b18:	2484003c 	addiu	a0,a0,60
40002b1c:	8fbf003c 	lw	ra,60(sp)
40002b20:	8fb60038 	lw	s6,56(sp)
40002b24:	8fb50034 	lw	s5,52(sp)
40002b28:	8fb40030 	lw	s4,48(sp)
40002b2c:	8fb3002c 	lw	s3,44(sp)
40002b30:	8fb20028 	lw	s2,40(sp)
40002b34:	8fb10024 	lw	s1,36(sp)
40002b38:	8fb00020 	lw	s0,32(sp)
40002b3c:	240400ff 	li	a0,255
40002b40:	0800064a 	j	40001928 <panic>
40002b44:	27bd0040 	addiu	sp,sp,64
40002b48:	08000a94 	j	40002a50 <hf_yield+0x94>
40002b4c:	a0430016 	sb	v1,22(v0)
40002b50:	8fa40018 	lw	a0,24(sp)
40002b54:	8fbf003c 	lw	ra,60(sp)
40002b58:	8fb60038 	lw	s6,56(sp)
40002b5c:	8fb50034 	lw	s5,52(sp)
40002b60:	8fb40030 	lw	s4,48(sp)
40002b64:	8fb3002c 	lw	s3,44(sp)
40002b68:	8fb20028 	lw	s2,40(sp)
40002b6c:	8fb10024 	lw	s1,36(sp)
40002b70:	8fb00020 	lw	s0,32(sp)
40002b74:	08000082 	j	40000208 <_interrupt_set>
40002b78:	27bd0040 	addiu	sp,sp,64

40002b7c <hf_kill>:
40002b7c:	27bdffc8 	addiu	sp,sp,-56
40002b80:	afb00018 	sw	s0,24(sp)
40002b84:	3090ffff 	andi	s0,a0,0xffff
40002b88:	3c044000 	lui	a0,0x4000
40002b8c:	24843af8 	addiu	a0,a0,15096
40002b90:	02002821 	move	a1,s0
40002b94:	afbf0034 	sw	ra,52(sp)
40002b98:	afb60030 	sw	s6,48(sp)
40002b9c:	afb5002c 	sw	s5,44(sp)
40002ba0:	afb40028 	sw	s4,40(sp)
40002ba4:	afb30024 	sw	s3,36(sp)
40002ba8:	afb20020 	sw	s2,32(sp)
40002bac:	0c000435 	jal	400010d4 <printf>
40002bb0:	afb1001c 	sw	s1,28(sp)
40002bb4:	0c000154 	jal	40000550 <_read_us>
40002bb8:	00000000 	nop
40002bbc:	3c044000 	lui	a0,0x4000
40002bc0:	00602821 	move	a1,v1
40002bc4:	0c0002a3 	jal	40000a8c <dprintf>
40002bc8:	24843b14 	addiu	a0,a0,15124
40002bcc:	0c000082 	jal	40000208 <_interrupt_set>
40002bd0:	00002021 	move	a0,zero
40002bd4:	afa20010 	sw	v0,16(sp)
40002bd8:	120000e6 	beqz	s0,40002f74 <hf_kill+0x3f8>
40002bdc:	001018c0 	sll	v1,s0,0x3
40002be0:	00101140 	sll	v0,s0,0x5
40002be4:	00621021 	addu	v0,v1,v0
40002be8:	00501023 	subu	v0,v0,s0
40002bec:	3c154000 	lui	s5,0x4000
40002bf0:	00021080 	sll	v0,v0,0x2
40002bf4:	26b53dbc 	addiu	s5,s5,15804
40002bf8:	02a21021 	addu	v0,s5,v0
40002bfc:	8c43008c 	lw	v1,140(v0)
40002c00:	3c114008 	lui	s1,0x4008
40002c04:	106000cb 	beqz	v1,40002f34 <hf_kill+0x3b8>
40002c08:	ae22f144 	sw	v0,-3772(s1)
40002c0c:	2e03001e 	sltiu	v1,s0,30
40002c10:	106000c8 	beqz	v1,40002f34 <hf_kill+0x3b8>
40002c14:	2403ffff 	li	v1,-1
40002c18:	8c440090 	lw	a0,144(v0)
40002c1c:	a4430000 	sh	v1,0(v0)
40002c20:	0c0005b3 	jal	400016cc <hf_free>
40002c24:	ac40008c 	sw	zero,140(v0)
40002c28:	8e22f144 	lw	v0,-3772(s1)
40002c2c:	00002821 	move	a1,zero
40002c30:	3c144008 	lui	s4,0x4008
40002c34:	0c00012d 	jal	400004b4 <_set_task_sp>
40002c38:	94440000 	lhu	a0,0(v0)
40002c3c:	8e22f144 	lw	v0,-3772(s1)
40002c40:	00002821 	move	a1,zero
40002c44:	0c000143 	jal	4000050c <_set_task_tp>
40002c48:	94440000 	lhu	a0,0(v0)
40002c4c:	8e22f144 	lw	v0,-3772(s1)
40002c50:	9684f150 	lhu	a0,-3760(s4)
40002c54:	94430030 	lhu	v1,48(v0)
40002c58:	2484ffff 	addiu	a0,a0,-1
40002c5c:	a0400016 	sb	zero,22(v0)
40002c60:	14600076 	bnez	v1,40002e3c <hf_kill+0x2c0>
40002c64:	a684f150 	sh	a0,-3760(s4)
40002c68:	94420032 	lhu	v0,50(v0)
40002c6c:	1040004e 	beqz	v0,40002da8 <hf_kill+0x22c>
40002c70:	3c134008 	lui	s3,0x4008
40002c74:	3c134008 	lui	s3,0x4008
40002c78:	0c0006e9 	jal	40001ba4 <hf_queue_count>
40002c7c:	8e64f14c 	lw	a0,-3764(s3)
40002c80:	184000a0 	blez	v0,40002f04 <hf_kill+0x388>
40002c84:	0040b021 	move	s6,v0
40002c88:	08000b26 	j	40002c98 <hf_kill+0x11c>
40002c8c:	00009021 	move	s2,zero
40002c90:	12560008 	beq	s2,s6,40002cb4 <hf_kill+0x138>
40002c94:	00000000 	nop
40002c98:	8e64f14c 	lw	a0,-3764(s3)
40002c9c:	0c000728 	jal	40001ca0 <hf_queue_get>
40002ca0:	02402821 	move	a1,s2
40002ca4:	8e23f144 	lw	v1,-3772(s1)
40002ca8:	1462fff9 	bne	v1,v0,40002c90 <hf_kill+0x114>
40002cac:	26520001 	addiu	s2,s2,1
40002cb0:	2652ffff 	addiu	s2,s2,-1
40002cb4:	12d20095 	beq	s6,s2,40002f0c <hf_kill+0x390>
40002cb8:	00000000 	nop
40002cbc:	1240000f 	beqz	s2,40002cfc <hf_kill+0x180>
40002cc0:	02402821 	move	a1,s2
40002cc4:	08000b36 	j	40002cd8 <hf_kill+0x15c>
40002cc8:	8e64f14c 	lw	a0,-3764(s3)
40002ccc:	1240000b 	beqz	s2,40002cfc <hf_kill+0x180>
40002cd0:	02402821 	move	a1,s2
40002cd4:	8e64f14c 	lw	a0,-3764(s3)
40002cd8:	24b2ffff 	addiu	s2,a1,-1
40002cdc:	0c000741 	jal	40001d04 <hf_queue_swap>
40002ce0:	02403021 	move	a2,s2
40002ce4:	1040fff9 	beqz	v0,40002ccc <hf_kill+0x150>
40002ce8:	00000000 	nop
40002cec:	0c00064a 	jal	40001928 <panic>
40002cf0:	2404000c 	li	a0,12
40002cf4:	1640fff7 	bnez	s2,40002cd4 <hf_kill+0x158>
40002cf8:	02402821 	move	a1,s2
40002cfc:	0c00070d 	jal	40001c34 <hf_queue_remhead>
40002d00:	8e64f14c 	lw	a0,-3764(s3)
40002d04:	10400003 	beqz	v0,40002d14 <hf_kill+0x198>
40002d08:	8e23f144 	lw	v1,-3772(s1)
40002d0c:	10430004 	beq	v0,v1,40002d20 <hf_kill+0x1a4>
40002d10:	3c024008 	lui	v0,0x4008
40002d14:	0c00064a 	jal	40001928 <panic>
40002d18:	24040008 	li	a0,8
40002d1c:	3c024008 	lui	v0,0x4008
40002d20:	9442f140 	lhu	v0,-3776(v0)
40002d24:	9686f150 	lhu	a2,-3760(s4)
40002d28:	02002821 	move	a1,s0
40002d2c:	000220c0 	sll	a0,v0,0x3
40002d30:	00021940 	sll	v1,v0,0x5
40002d34:	00831821 	addu	v1,a0,v1
40002d38:	00621023 	subu	v0,v1,v0
40002d3c:	00021080 	sll	v0,v0,0x2
40002d40:	3c044000 	lui	a0,0x4000
40002d44:	24843b48 	addiu	a0,a0,15176
40002d48:	02a2a821 	addu	s5,s5,v0
40002d4c:	0c000226 	jal	40000898 <kprintf>
40002d50:	ae35f144 	sw	s5,-3772(s1)
40002d54:	0c000976 	jal	400025d8 <hf_selfid>
40002d58:	00000000 	nop
40002d5c:	8fa40010 	lw	a0,16(sp)
40002d60:	1050005c 	beq	v0,s0,40002ed4 <hf_kill+0x358>
40002d64:	00000000 	nop
40002d68:	0c000082 	jal	40000208 <_interrupt_set>
40002d6c:	00000000 	nop
40002d70:	3c044000 	lui	a0,0x4000
40002d74:	0c000435 	jal	400010d4 <printf>
40002d78:	24843514 	addiu	a0,a0,13588
40002d7c:	00001021 	move	v0,zero
40002d80:	8fbf0034 	lw	ra,52(sp)
40002d84:	8fb60030 	lw	s6,48(sp)
40002d88:	8fb5002c 	lw	s5,44(sp)
40002d8c:	8fb40028 	lw	s4,40(sp)
40002d90:	8fb30024 	lw	s3,36(sp)
40002d94:	8fb20020 	lw	s2,32(sp)
40002d98:	8fb1001c 	lw	s1,28(sp)
40002d9c:	8fb00018 	lw	s0,24(sp)
40002da0:	03e00008 	jr	ra
40002da4:	27bd0038 	addiu	sp,sp,56
40002da8:	0c0006e9 	jal	40001ba4 <hf_queue_count>
40002dac:	8e64f158 	lw	a0,-3752(s3)
40002db0:	1840004e 	blez	v0,40002eec <hf_kill+0x370>
40002db4:	0040b021 	move	s6,v0
40002db8:	08000b72 	j	40002dc8 <hf_kill+0x24c>
40002dbc:	00009021 	move	s2,zero
40002dc0:	12560008 	beq	s2,s6,40002de4 <hf_kill+0x268>
40002dc4:	00000000 	nop
40002dc8:	8e64f158 	lw	a0,-3752(s3)
40002dcc:	0c000728 	jal	40001ca0 <hf_queue_get>
40002dd0:	02402821 	move	a1,s2
40002dd4:	8e23f144 	lw	v1,-3772(s1)
40002dd8:	1462fff9 	bne	v1,v0,40002dc0 <hf_kill+0x244>
40002ddc:	26520001 	addiu	s2,s2,1
40002de0:	2652ffff 	addiu	s2,s2,-1
40002de4:	12d20043 	beq	s6,s2,40002ef4 <hf_kill+0x378>
40002de8:	00000000 	nop
40002dec:	1240000f 	beqz	s2,40002e2c <hf_kill+0x2b0>
40002df0:	02402821 	move	a1,s2
40002df4:	08000b82 	j	40002e08 <hf_kill+0x28c>
40002df8:	8e64f158 	lw	a0,-3752(s3)
40002dfc:	1240000b 	beqz	s2,40002e2c <hf_kill+0x2b0>
40002e00:	02402821 	move	a1,s2
40002e04:	8e64f158 	lw	a0,-3752(s3)
40002e08:	24b2ffff 	addiu	s2,a1,-1
40002e0c:	0c000741 	jal	40001d04 <hf_queue_swap>
40002e10:	02403021 	move	a2,s2
40002e14:	1040fff9 	beqz	v0,40002dfc <hf_kill+0x280>
40002e18:	00000000 	nop
40002e1c:	0c00064a 	jal	40001928 <panic>
40002e20:	2404000c 	li	a0,12
40002e24:	1640fff7 	bnez	s2,40002e04 <hf_kill+0x288>
40002e28:	02402821 	move	a1,s2
40002e2c:	0c00070d 	jal	40001c34 <hf_queue_remhead>
40002e30:	8e64f158 	lw	a0,-3752(s3)
40002e34:	08000b41 	j	40002d04 <hf_kill+0x188>
40002e38:	00000000 	nop
40002e3c:	3c134008 	lui	s3,0x4008
40002e40:	0c0006e9 	jal	40001ba4 <hf_queue_count>
40002e44:	8e64f15c 	lw	a0,-3748(s3)
40002e48:	18400034 	blez	v0,40002f1c <hf_kill+0x3a0>
40002e4c:	0040b021 	move	s6,v0
40002e50:	08000b98 	j	40002e60 <hf_kill+0x2e4>
40002e54:	00009021 	move	s2,zero
40002e58:	12560008 	beq	s2,s6,40002e7c <hf_kill+0x300>
40002e5c:	00000000 	nop
40002e60:	8e64f15c 	lw	a0,-3748(s3)
40002e64:	0c000728 	jal	40001ca0 <hf_queue_get>
40002e68:	02402821 	move	a1,s2
40002e6c:	8e23f144 	lw	v1,-3772(s1)
40002e70:	1462fff9 	bne	v1,v0,40002e58 <hf_kill+0x2dc>
40002e74:	26520001 	addiu	s2,s2,1
40002e78:	2652ffff 	addiu	s2,s2,-1
40002e7c:	12d20029 	beq	s6,s2,40002f24 <hf_kill+0x3a8>
40002e80:	00000000 	nop
40002e84:	1240000f 	beqz	s2,40002ec4 <hf_kill+0x348>
40002e88:	02402821 	move	a1,s2
40002e8c:	08000ba8 	j	40002ea0 <hf_kill+0x324>
40002e90:	8e64f15c 	lw	a0,-3748(s3)
40002e94:	1240000b 	beqz	s2,40002ec4 <hf_kill+0x348>
40002e98:	02402821 	move	a1,s2
40002e9c:	8e64f15c 	lw	a0,-3748(s3)
40002ea0:	24b2ffff 	addiu	s2,a1,-1
40002ea4:	0c000741 	jal	40001d04 <hf_queue_swap>
40002ea8:	02403021 	move	a2,s2
40002eac:	1040fff9 	beqz	v0,40002e94 <hf_kill+0x318>
40002eb0:	00000000 	nop
40002eb4:	0c00064a 	jal	40001928 <panic>
40002eb8:	2404000c 	li	a0,12
40002ebc:	1640fff7 	bnez	s2,40002e9c <hf_kill+0x320>
40002ec0:	02402821 	move	a1,s2
40002ec4:	0c00070d 	jal	40001c34 <hf_queue_remhead>
40002ec8:	8e64f15c 	lw	a0,-3748(s3)
40002ecc:	08000b41 	j	40002d04 <hf_kill+0x188>
40002ed0:	00000000 	nop
40002ed4:	0c000082 	jal	40000208 <_interrupt_set>
40002ed8:	00000000 	nop
40002edc:	0c000a6f 	jal	400029bc <hf_yield>
40002ee0:	00000000 	nop
40002ee4:	08000b5d 	j	40002d74 <hf_kill+0x1f8>
40002ee8:	3c044000 	lui	a0,0x4000
40002eec:	1440ffcf 	bnez	v0,40002e2c <hf_kill+0x2b0>
40002ef0:	00009021 	move	s2,zero
40002ef4:	0c00064a 	jal	40001928 <panic>
40002ef8:	24040005 	li	a0,5
40002efc:	08000b7b 	j	40002dec <hf_kill+0x270>
40002f00:	00000000 	nop
40002f04:	1440ff7d 	bnez	v0,40002cfc <hf_kill+0x180>
40002f08:	00009021 	move	s2,zero
40002f0c:	0c00064a 	jal	40001928 <panic>
40002f10:	24040010 	li	a0,16
40002f14:	08000b2f 	j	40002cbc <hf_kill+0x140>
40002f18:	00000000 	nop
40002f1c:	1440ffe9 	bnez	v0,40002ec4 <hf_kill+0x348>
40002f20:	00009021 	move	s2,zero
40002f24:	0c00064a 	jal	40001928 <panic>
40002f28:	24040006 	li	a0,6
40002f2c:	08000ba1 	j	40002e84 <hf_kill+0x308>
40002f30:	00000000 	nop
40002f34:	3c044000 	lui	a0,0x4000
40002f38:	0c000226 	jal	40000898 <kprintf>
40002f3c:	24843a4c 	addiu	a0,a0,14924
40002f40:	3c024008 	lui	v0,0x4008
40002f44:	9442f140 	lhu	v0,-3776(v0)
40002f48:	8fa40010 	lw	a0,16(sp)
40002f4c:	000228c0 	sll	a1,v0,0x3
40002f50:	00021940 	sll	v1,v0,0x5
40002f54:	00a31821 	addu	v1,a1,v1
40002f58:	00621023 	subu	v0,v1,v0
40002f5c:	00021080 	sll	v0,v0,0x2
40002f60:	02a2a821 	addu	s5,s5,v0
40002f64:	0c000082 	jal	40000208 <_interrupt_set>
40002f68:	ae35f144 	sw	s5,-3772(s1)
40002f6c:	08000b60 	j	40002d80 <hf_kill+0x204>
40002f70:	2402ff9c 	li	v0,-100
40002f74:	3c044000 	lui	a0,0x4000
40002f78:	0c000226 	jal	40000898 <kprintf>
40002f7c:	24843b24 	addiu	a0,a0,15140
40002f80:	8fa40010 	lw	a0,16(sp)
40002f84:	0c000082 	jal	40000208 <_interrupt_set>
40002f88:	00000000 	nop
40002f8c:	08000b60 	j	40002d80 <hf_kill+0x204>
40002f90:	2402ff9c 	li	v0,-100

40002f94 <aperiodic_generator>:
40002f94:	27bdffc0 	addiu	sp,sp,-64
40002f98:	afb70038 	sw	s7,56(sp)
40002f9c:	afb60034 	sw	s6,52(sp)
40002fa0:	afb50030 	sw	s5,48(sp)
40002fa4:	afb4002c 	sw	s4,44(sp)
40002fa8:	afb30028 	sw	s3,40(sp)
40002fac:	afb20024 	sw	s2,36(sp)
40002fb0:	3c174000 	lui	s7,0x4000
40002fb4:	3c164000 	lui	s6,0x4000
40002fb8:	3c154000 	lui	s5,0x4000
40002fbc:	3c144000 	lui	s4,0x4000
40002fc0:	3c134000 	lui	s3,0x4000
40002fc4:	3c124000 	lui	s2,0x4000
40002fc8:	afb10020 	sw	s1,32(sp)
40002fcc:	afbf003c 	sw	ra,60(sp)
40002fd0:	afb0001c 	sw	s0,28(sp)
40002fd4:	26f73bd8 	addiu	s7,s7,15320
40002fd8:	26d63c18 	addiu	s6,s6,15384
40002fdc:	26b53ba8 	addiu	s5,s5,15272
40002fe0:	24110400 	li	s1,1024
40002fe4:	269430e0 	addiu	s4,s4,12512
40002fe8:	26733be8 	addiu	s3,s3,15336
40002fec:	26523120 	addiu	s2,s2,12576
40002ff0:	0c000420 	jal	40001080 <random>
40002ff4:	00000000 	nop
40002ff8:	00402021 	move	a0,v0
40002ffc:	0c00047b 	jal	400011ec <__modsi3>
40003000:	240503e8 	li	a1,1000
40003004:	0c000150 	jal	40000540 <_readcounter>
40003008:	2450012c 	addiu	s0,v0,300
4000300c:	00402821 	move	a1,v0
40003010:	02a02021 	move	a0,s5
40003014:	0c000435 	jal	400010d4 <printf>
40003018:	02003021 	move	a2,s0
4000301c:	00003821 	move	a3,zero
40003020:	24060001 	li	a2,1
40003024:	00002821 	move	a1,zero
40003028:	02802021 	move	a0,s4
4000302c:	afb70010 	sw	s7,16(sp)
40003030:	0c000984 	jal	40002610 <hf_spawn>
40003034:	afb10014 	sw	s1,20(sp)
40003038:	0c0000b6 	jal	400002d8 <delay_ms>
4000303c:	02002021 	move	a0,s0
40003040:	0c000420 	jal	40001080 <random>
40003044:	00000000 	nop
40003048:	00402021 	move	a0,v0
4000304c:	0c00047b 	jal	400011ec <__modsi3>
40003050:	240503e8 	li	a1,1000
40003054:	0c000150 	jal	40000540 <_readcounter>
40003058:	2450012c 	addiu	s0,v0,300
4000305c:	00402821 	move	a1,v0
40003060:	02602021 	move	a0,s3
40003064:	0c000435 	jal	400010d4 <printf>
40003068:	02003021 	move	a2,s0
4000306c:	02402021 	move	a0,s2
40003070:	00002821 	move	a1,zero
40003074:	24060001 	li	a2,1
40003078:	00003821 	move	a3,zero
4000307c:	afb60010 	sw	s6,16(sp)
40003080:	0c000984 	jal	40002610 <hf_spawn>
40003084:	afb10014 	sw	s1,20(sp)
40003088:	0c0000b6 	jal	400002d8 <delay_ms>
4000308c:	02002021 	move	a0,s0
40003090:	08000bfc 	j	40002ff0 <aperiodic_generator+0x5c>
40003094:	00000000 	nop

40003098 <realtime_worker>:
40003098:	27bdffe0 	addiu	sp,sp,-32
4000309c:	afb00014 	sw	s0,20(sp)
400030a0:	3c104000 	lui	s0,0x4000
400030a4:	afbf001c 	sw	ra,28(sp)
400030a8:	afb10018 	sw	s1,24(sp)
400030ac:	26103c2c 	addiu	s0,s0,15404
400030b0:	0c000150 	jal	40000540 <_readcounter>
400030b4:	00000000 	nop
400030b8:	0c000976 	jal	400025d8 <hf_selfid>
400030bc:	00408821 	move	s1,v0
400030c0:	00403021 	move	a2,v0
400030c4:	02002021 	move	a0,s0
400030c8:	0c000435 	jal	400010d4 <printf>
400030cc:	02202821 	move	a1,s1
400030d0:	0c0000b6 	jal	400002d8 <delay_ms>
400030d4:	240403e8 	li	a0,1000
400030d8:	08000c2c 	j	400030b0 <realtime_worker+0x18>
400030dc:	00000000 	nop

400030e0 <aperiodic_task>:
400030e0:	27bdffe8 	addiu	sp,sp,-24
400030e4:	afbf0014 	sw	ra,20(sp)
400030e8:	0c000150 	jal	40000540 <_readcounter>
400030ec:	afb00010 	sw	s0,16(sp)
400030f0:	0c000976 	jal	400025d8 <hf_selfid>
400030f4:	00408021 	move	s0,v0
400030f8:	3c044000 	lui	a0,0x4000
400030fc:	24843c54 	addiu	a0,a0,15444
40003100:	02002821 	move	a1,s0
40003104:	0c000435 	jal	400010d4 <printf>
40003108:	00403021 	move	a2,v0
4000310c:	8fbf0014 	lw	ra,20(sp)
40003110:	8fb00010 	lw	s0,16(sp)
40003114:	24040005 	li	a0,5
40003118:	080000b6 	j	400002d8 <delay_ms>
4000311c:	27bd0018 	addiu	sp,sp,24

40003120 <aperiodic_task_2>:
40003120:	27bdffe8 	addiu	sp,sp,-24
40003124:	afbf0014 	sw	ra,20(sp)
40003128:	0c000150 	jal	40000540 <_readcounter>
4000312c:	afb00010 	sw	s0,16(sp)
40003130:	0c000976 	jal	400025d8 <hf_selfid>
40003134:	00408021 	move	s0,v0
40003138:	3c044000 	lui	a0,0x4000
4000313c:	24843c7c 	addiu	a0,a0,15484
40003140:	02002821 	move	a1,s0
40003144:	0c000435 	jal	400010d4 <printf>
40003148:	00403021 	move	a2,v0
4000314c:	8fbf0014 	lw	ra,20(sp)
40003150:	8fb00010 	lw	s0,16(sp)
40003154:	24040005 	li	a0,5
40003158:	080000b6 	j	400002d8 <delay_ms>
4000315c:	27bd0018 	addiu	sp,sp,24

40003160 <app_main>:
40003160:	27bdffd8 	addiu	sp,sp,-40
40003164:	afbf0024 	sw	ra,36(sp)
40003168:	afb10020 	sw	s1,32(sp)
4000316c:	0c000150 	jal	40000540 <_readcounter>
40003170:	afb0001c 	sw	s0,28(sp)
40003174:	3c044000 	lui	a0,0x4000
40003178:	24843ca4 	addiu	a0,a0,15524
4000317c:	0c000435 	jal	400010d4 <printf>
40003180:	00402821 	move	a1,v0
40003184:	3c114000 	lui	s1,0x4000
40003188:	3c024000 	lui	v0,0x4000
4000318c:	24100400 	li	s0,1024
40003190:	26243098 	addiu	a0,s1,12440
40003194:	24050014 	li	a1,20
40003198:	2406000a 	li	a2,10
4000319c:	24070014 	li	a3,20
400031a0:	24423cc4 	addiu	v0,v0,15556
400031a4:	afb00014 	sw	s0,20(sp)
400031a8:	0c000984 	jal	40002610 <hf_spawn>
400031ac:	afa20010 	sw	v0,16(sp)
400031b0:	3c024000 	lui	v0,0x4000
400031b4:	26243098 	addiu	a0,s1,12440
400031b8:	24050014 	li	a1,20
400031bc:	24060004 	li	a2,4
400031c0:	24070014 	li	a3,20
400031c4:	24423cd0 	addiu	v0,v0,15568
400031c8:	afb00014 	sw	s0,20(sp)
400031cc:	0c000984 	jal	40002610 <hf_spawn>
400031d0:	afa20010 	sw	v0,16(sp)
400031d4:	3c024000 	lui	v0,0x4000
400031d8:	26243098 	addiu	a0,s1,12440
400031dc:	24050014 	li	a1,20
400031e0:	24060005 	li	a2,5
400031e4:	24070014 	li	a3,20
400031e8:	24423cdc 	addiu	v0,v0,15580
400031ec:	afb00014 	sw	s0,20(sp)
400031f0:	0c000984 	jal	40002610 <hf_spawn>
400031f4:	afa20010 	sw	v0,16(sp)
400031f8:	3c044000 	lui	a0,0x4000
400031fc:	3c024000 	lui	v0,0x4000
40003200:	24423ce8 	addiu	v0,v0,15592
40003204:	24842f94 	addiu	a0,a0,12180
40003208:	00002821 	move	a1,zero
4000320c:	00003021 	move	a2,zero
40003210:	00003821 	move	a3,zero
40003214:	afb00014 	sw	s0,20(sp)
40003218:	0c000984 	jal	40002610 <hf_spawn>
4000321c:	afa20010 	sw	v0,16(sp)
40003220:	8fbf0024 	lw	ra,36(sp)
40003224:	8fb10020 	lw	s1,32(sp)
40003228:	8fb0001c 	lw	s0,28(sp)
4000322c:	03e00008 	jr	ra
40003230:	27bd0028 	addiu	sp,sp,40
